
LP4dsm.elf:     file format elf32-avr

Sections:
Idx Name          Size      VMA       LMA       File off  Algn
  0 .data         000001dc  00800100  00001cd4  00001d68  2**0
                  CONTENTS, ALLOC, LOAD, DATA
  1 .text         00001cd4  00000000  00000000  00000094  2**1
                  CONTENTS, ALLOC, LOAD, READONLY, CODE
  2 .bss          0000016b  008002dc  008002dc  00001f44  2**0
                  ALLOC
  3 .comment      00000030  00000000  00000000  00001f44  2**0
                  CONTENTS, READONLY
  4 .note.gnu.avr.deviceinfo 0000003c  00000000  00000000  00001f74  2**2
                  CONTENTS, READONLY

Disassembly of section .text:

00000000 <__vectors>:
       0:	19 c0       	rjmp	.+50     	; 0x34 <__ctors_end>
       2:	33 c0       	rjmp	.+102    	; 0x6a <__bad_interrupt>
       4:	32 c0       	rjmp	.+100    	; 0x6a <__bad_interrupt>
       6:	31 c0       	rjmp	.+98     	; 0x6a <__bad_interrupt>
       8:	30 c0       	rjmp	.+96     	; 0x6a <__bad_interrupt>
       a:	2f c0       	rjmp	.+94     	; 0x6a <__bad_interrupt>
       c:	2e c0       	rjmp	.+92     	; 0x6a <__bad_interrupt>
       e:	2d c0       	rjmp	.+90     	; 0x6a <__bad_interrupt>
      10:	2c c0       	rjmp	.+88     	; 0x6a <__bad_interrupt>
      12:	2b c0       	rjmp	.+86     	; 0x6a <__bad_interrupt>
      14:	2a c0       	rjmp	.+84     	; 0x6a <__bad_interrupt>
      16:	30 c9       	rjmp	.-3488   	; 0xfffff278 <__eeprom_end+0xff7ef278>
      18:	fb c8       	rjmp	.-3594   	; 0xfffff210 <__eeprom_end+0xff7ef210>
      1a:	27 c0       	rjmp	.+78     	; 0x6a <__bad_interrupt>
      1c:	26 c0       	rjmp	.+76     	; 0x6a <__bad_interrupt>
      1e:	25 c0       	rjmp	.+74     	; 0x6a <__bad_interrupt>
      20:	24 c0       	rjmp	.+72     	; 0x6a <__bad_interrupt>
      22:	23 c0       	rjmp	.+70     	; 0x6a <__bad_interrupt>
      24:	22 c0       	rjmp	.+68     	; 0x6a <__bad_interrupt>
      26:	d5 c7       	rjmp	.+4010   	; 0xfd2 <__vector_19>
      28:	20 c0       	rjmp	.+64     	; 0x6a <__bad_interrupt>
      2a:	ad c0       	rjmp	.+346    	; 0x186 <__vector_21>
      2c:	1e c0       	rjmp	.+60     	; 0x6a <__bad_interrupt>
      2e:	1d c0       	rjmp	.+58     	; 0x6a <__bad_interrupt>
      30:	1c c0       	rjmp	.+56     	; 0x6a <__bad_interrupt>
      32:	1b c0       	rjmp	.+54     	; 0x6a <__bad_interrupt>

00000034 <__ctors_end>:
      34:	11 24       	eor	r1, r1
      36:	1f be       	out	0x3f, r1	; 63
      38:	cf ef       	ldi	r28, 0xFF	; 255
      3a:	d4 e0       	ldi	r29, 0x04	; 4
      3c:	de bf       	out	0x3e, r29	; 62
      3e:	cd bf       	out	0x3d, r28	; 61

00000040 <__do_copy_data>:
      40:	12 e0       	ldi	r17, 0x02	; 2
      42:	a0 e0       	ldi	r26, 0x00	; 0
      44:	b1 e0       	ldi	r27, 0x01	; 1
      46:	e4 ed       	ldi	r30, 0xD4	; 212
      48:	fc e1       	ldi	r31, 0x1C	; 28
      4a:	02 c0       	rjmp	.+4      	; 0x50 <__do_copy_data+0x10>
      4c:	05 90       	lpm	r0, Z+
      4e:	0d 92       	st	X+, r0
      50:	ac 3d       	cpi	r26, 0xDC	; 220
      52:	b1 07       	cpc	r27, r17
      54:	d9 f7       	brne	.-10     	; 0x4c <__do_copy_data+0xc>

00000056 <__do_clear_bss>:
      56:	24 e0       	ldi	r18, 0x04	; 4
      58:	ac ed       	ldi	r26, 0xDC	; 220
      5a:	b2 e0       	ldi	r27, 0x02	; 2
      5c:	01 c0       	rjmp	.+2      	; 0x60 <.do_clear_bss_start>

0000005e <.do_clear_bss_loop>:
      5e:	1d 92       	st	X+, r1

00000060 <.do_clear_bss_start>:
      60:	a7 34       	cpi	r26, 0x47	; 71
      62:	b2 07       	cpc	r27, r18
      64:	e1 f7       	brne	.-8      	; 0x5e <.do_clear_bss_loop>
      66:	9c d4       	rcall	.+2360   	; 0x9a0 <main>
      68:	33 ce       	rjmp	.-922    	; 0xfffffcd0 <__eeprom_end+0xff7efcd0>

0000006a <__bad_interrupt>:
      6a:	ca cf       	rjmp	.-108    	; 0x0 <__vectors>

0000006c <AdcInit>:
      6c:	27 e0       	ldi	r18, 0x07	; 7
      6e:	33 e0       	ldi	r19, 0x03	; 3
      70:	44 e0       	ldi	r20, 0x04	; 4
      72:	60 e0       	ldi	r22, 0x00	; 0
      74:	72 e0       	ldi	r23, 0x02	; 2
      76:	80 e0       	ldi	r24, 0x00	; 0
      78:	90 e0       	ldi	r25, 0x00	; 0
      7a:	f9 01       	movw	r30, r18
      7c:	e8 0f       	add	r30, r24
      7e:	f9 1f       	adc	r31, r25
      80:	71 83       	std	Z+1, r23	; 0x01
      82:	60 83       	st	Z, r22
      84:	08 96       	adiw	r24, 0x08	; 8
      86:	88 34       	cpi	r24, 0x48	; 72
      88:	91 05       	cpc	r25, r1
      8a:	b9 f7       	brne	.-18     	; 0x7a <AdcInit+0xe>
      8c:	41 50       	subi	r20, 0x01	; 1
      8e:	2e 5f       	subi	r18, 0xFE	; 254
      90:	3f 4f       	sbci	r19, 0xFF	; 255
      92:	41 11       	cpse	r20, r1
      94:	f0 cf       	rjmp	.-32     	; 0x76 <AdcInit+0xa>
      96:	10 92 04 03 	sts	0x0304, r1
      9a:	10 92 06 03 	sts	0x0306, r1
      9e:	10 92 05 03 	sts	0x0305, r1
      a2:	83 e3       	ldi	r24, 0x33	; 51
      a4:	80 93 7e 00 	sts	0x007E, r24
      a8:	e0 91 04 03 	lds	r30, 0x0304
      ac:	f0 e0       	ldi	r31, 0x00	; 0
      ae:	e8 5e       	subi	r30, 0xE8	; 232
      b0:	fe 4f       	sbci	r31, 0xFE	; 254
      b2:	80 81       	ld	r24, Z
      b4:	80 64       	ori	r24, 0x40	; 64
      b6:	80 93 7c 00 	sts	0x007C, r24
      ba:	8d ea       	ldi	r24, 0xAD	; 173
      bc:	80 93 7a 00 	sts	0x007A, r24
      c0:	85 e0       	ldi	r24, 0x05	; 5
      c2:	80 93 7b 00 	sts	0x007B, r24
      c6:	08 95       	ret

000000c8 <adc_checkSend>:
      c8:	80 91 04 03 	lds	r24, 0x0304
      cc:	82 30       	cpi	r24, 0x02	; 2
      ce:	29 f4       	brne	.+10     	; 0xda <adc_checkSend+0x12>
      d0:	81 e0       	ldi	r24, 0x01	; 1
      d2:	90 91 06 03 	lds	r25, 0x0306
      d6:	92 30       	cpi	r25, 0x02	; 2
      d8:	09 f0       	breq	.+2      	; 0xdc <adc_checkSend+0x14>
      da:	80 e0       	ldi	r24, 0x00	; 0
      dc:	81 70       	andi	r24, 0x01	; 1
      de:	08 95       	ret

000000e0 <AdcGetChanel>:
      e0:	85 30       	cpi	r24, 0x05	; 5
      e2:	48 f4       	brcc	.+18     	; 0xf6 <AdcGetChanel+0x16>
      e4:	e8 2f       	mov	r30, r24
      e6:	f0 e0       	ldi	r31, 0x00	; 0
      e8:	ee 0f       	add	r30, r30
      ea:	ff 1f       	adc	r31, r31
      ec:	e6 50       	subi	r30, 0x06	; 6
      ee:	fd 4f       	sbci	r31, 0xFD	; 253
      f0:	80 81       	ld	r24, Z
      f2:	91 81       	ldd	r25, Z+1	; 0x01
      f4:	08 95       	ret
      f6:	80 e0       	ldi	r24, 0x00	; 0
      f8:	90 e0       	ldi	r25, 0x00	; 0
      fa:	08 95       	ret

000000fc <AdcCalc_avg>:
      fc:	cf 93       	push	r28
      fe:	df 93       	push	r29
     100:	aa ef       	ldi	r26, 0xFA	; 250
     102:	b2 e0       	ldi	r27, 0x02	; 2
     104:	e7 e0       	ldi	r30, 0x07	; 7
     106:	f3 e0       	ldi	r31, 0x03	; 3
     108:	40 e0       	ldi	r20, 0x00	; 0
     10a:	50 e0       	ldi	r21, 0x00	; 0
     10c:	20 e0       	ldi	r18, 0x00	; 0
     10e:	30 e0       	ldi	r19, 0x00	; 0
     110:	80 e0       	ldi	r24, 0x00	; 0
     112:	90 e0       	ldi	r25, 0x00	; 0
     114:	ef 01       	movw	r28, r30
     116:	c4 0f       	add	r28, r20
     118:	d5 1f       	adc	r29, r21
     11a:	68 85       	ldd	r22, Y+8	; 0x08
     11c:	79 85       	ldd	r23, Y+9	; 0x09
     11e:	86 0f       	add	r24, r22
     120:	97 1f       	adc	r25, r23
     122:	09 90       	ld	r0, Y+
     124:	d8 81       	ld	r29, Y
     126:	c0 2d       	mov	r28, r0
     128:	6c 1b       	sub	r22, r28
     12a:	7d 0b       	sbc	r23, r29
     12c:	26 0f       	add	r18, r22
     12e:	37 1f       	adc	r19, r23
     130:	48 5f       	subi	r20, 0xF8	; 248
     132:	5f 4f       	sbci	r21, 0xFF	; 255
     134:	40 34       	cpi	r20, 0x40	; 64
     136:	51 05       	cpc	r21, r1
     138:	69 f7       	brne	.-38     	; 0x114 <AdcCalc_avg+0x18>
     13a:	43 e0       	ldi	r20, 0x03	; 3
     13c:	95 95       	asr	r25
     13e:	87 95       	ror	r24
     140:	4a 95       	dec	r20
     142:	e1 f7       	brne	.-8      	; 0x13c <AdcCalc_avg+0x40>
     144:	35 95       	asr	r19
     146:	27 95       	ror	r18
     148:	35 95       	asr	r19
     14a:	27 95       	ror	r18
     14c:	82 0f       	add	r24, r18
     14e:	93 1f       	adc	r25, r19
     150:	97 fd       	sbrc	r25, 7
     152:	07 c0       	rjmp	.+14     	; 0x162 <AdcCalc_avg+0x66>
     154:	81 15       	cp	r24, r1
     156:	24 e0       	ldi	r18, 0x04	; 4
     158:	92 07       	cpc	r25, r18
     15a:	2c f0       	brlt	.+10     	; 0x166 <AdcCalc_avg+0x6a>
     15c:	8f ef       	ldi	r24, 0xFF	; 255
     15e:	93 e0       	ldi	r25, 0x03	; 3
     160:	02 c0       	rjmp	.+4      	; 0x166 <AdcCalc_avg+0x6a>
     162:	80 e0       	ldi	r24, 0x00	; 0
     164:	90 e0       	ldi	r25, 0x00	; 0
     166:	8d 93       	st	X+, r24
     168:	9d 93       	st	X+, r25
     16a:	ef 01       	movw	r28, r30
     16c:	c0 5c       	subi	r28, 0xC0	; 192
     16e:	df 4f       	sbci	r29, 0xFF	; 255
     170:	88 81       	ld	r24, Y
     172:	99 81       	ldd	r25, Y+1	; 0x01
     174:	81 93       	st	Z+, r24
     176:	91 93       	st	Z+, r25
     178:	83 e0       	ldi	r24, 0x03	; 3
     17a:	ef 30       	cpi	r30, 0x0F	; 15
     17c:	f8 07       	cpc	r31, r24
     17e:	21 f6       	brne	.-120    	; 0x108 <AdcCalc_avg+0xc>
     180:	df 91       	pop	r29
     182:	cf 91       	pop	r28
     184:	08 95       	ret

00000186 <__vector_21>:
     186:	1f 92       	push	r1
     188:	0f 92       	push	r0
     18a:	0f b6       	in	r0, 0x3f	; 63
     18c:	0f 92       	push	r0
     18e:	11 24       	eor	r1, r1
     190:	2f 93       	push	r18
     192:	3f 93       	push	r19
     194:	4f 93       	push	r20
     196:	5f 93       	push	r21
     198:	6f 93       	push	r22
     19a:	7f 93       	push	r23
     19c:	8f 93       	push	r24
     19e:	9f 93       	push	r25
     1a0:	af 93       	push	r26
     1a2:	bf 93       	push	r27
     1a4:	ef 93       	push	r30
     1a6:	ff 93       	push	r31
     1a8:	80 91 06 03 	lds	r24, 0x0306
     1ac:	90 91 04 03 	lds	r25, 0x0304
     1b0:	20 91 78 00 	lds	r18, 0x0078
     1b4:	30 91 79 00 	lds	r19, 0x0079
     1b8:	88 30       	cpi	r24, 0x08	; 8
     1ba:	29 f4       	brne	.+10     	; 0x1c6 <__vector_21+0x40>
     1bc:	30 93 03 03 	sts	0x0303, r19
     1c0:	20 93 02 03 	sts	0x0302, r18
     1c4:	0f c0       	rjmp	.+30     	; 0x1e4 <__vector_21+0x5e>
     1c6:	e8 2f       	mov	r30, r24
     1c8:	f0 e0       	ldi	r31, 0x00	; 0
     1ca:	31 96       	adiw	r30, 0x01	; 1
     1cc:	ee 0f       	add	r30, r30
     1ce:	ff 1f       	adc	r31, r31
     1d0:	ee 0f       	add	r30, r30
     1d2:	ff 1f       	adc	r31, r31
     1d4:	e9 0f       	add	r30, r25
     1d6:	f1 1d       	adc	r31, r1
     1d8:	ee 0f       	add	r30, r30
     1da:	ff 1f       	adc	r31, r31
     1dc:	e9 5f       	subi	r30, 0xF9	; 249
     1de:	fc 4f       	sbci	r31, 0xFC	; 252
     1e0:	31 83       	std	Z+1, r19	; 0x01
     1e2:	20 83       	st	Z, r18
     1e4:	9f 5f       	subi	r25, 0xFF	; 255
     1e6:	94 30       	cpi	r25, 0x04	; 4
     1e8:	19 f0       	breq	.+6      	; 0x1f0 <__vector_21+0x6a>
     1ea:	90 93 04 03 	sts	0x0304, r25
     1ee:	05 c0       	rjmp	.+10     	; 0x1fa <__vector_21+0x74>
     1f0:	10 92 04 03 	sts	0x0304, r1
     1f4:	8f 5f       	subi	r24, 0xFF	; 255
     1f6:	80 93 06 03 	sts	0x0306, r24
     1fa:	80 91 06 03 	lds	r24, 0x0306
     1fe:	88 30       	cpi	r24, 0x08	; 8
     200:	99 f4       	brne	.+38     	; 0x228 <__vector_21+0xa2>
     202:	80 91 04 03 	lds	r24, 0x0304
     206:	81 11       	cpse	r24, r1
     208:	0b c0       	rjmp	.+22     	; 0x220 <__vector_21+0x9a>
     20a:	80 91 7c 00 	lds	r24, 0x007C
     20e:	80 7f       	andi	r24, 0xF0	; 240
     210:	87 60       	ori	r24, 0x07	; 7
     212:	80 93 7c 00 	sts	0x007C, r24
     216:	72 df       	rcall	.-284    	; 0xfc <AdcCalc_avg>
     218:	81 e0       	ldi	r24, 0x01	; 1
     21a:	80 93 05 03 	sts	0x0305, r24
     21e:	10 c0       	rjmp	.+32     	; 0x240 <__vector_21+0xba>
     220:	10 92 06 03 	sts	0x0306, r1
     224:	10 92 04 03 	sts	0x0304, r1
     228:	80 91 7c 00 	lds	r24, 0x007C
     22c:	e0 91 04 03 	lds	r30, 0x0304
     230:	f0 e0       	ldi	r31, 0x00	; 0
     232:	e8 5e       	subi	r30, 0xE8	; 232
     234:	fe 4f       	sbci	r31, 0xFE	; 254
     236:	80 7f       	andi	r24, 0xF0	; 240
     238:	90 81       	ld	r25, Z
     23a:	89 2b       	or	r24, r25
     23c:	80 93 7c 00 	sts	0x007C, r24
     240:	ff 91       	pop	r31
     242:	ef 91       	pop	r30
     244:	bf 91       	pop	r27
     246:	af 91       	pop	r26
     248:	9f 91       	pop	r25
     24a:	8f 91       	pop	r24
     24c:	7f 91       	pop	r23
     24e:	6f 91       	pop	r22
     250:	5f 91       	pop	r21
     252:	4f 91       	pop	r20
     254:	3f 91       	pop	r19
     256:	2f 91       	pop	r18
     258:	0f 90       	pop	r0
     25a:	0f be       	out	0x3f, r0	; 63
     25c:	0f 90       	pop	r0
     25e:	1f 90       	pop	r1
     260:	18 95       	reti

00000262 <buz_SequenceCount>:
     262:	80 91 51 03 	lds	r24, 0x0351
     266:	90 e0       	ldi	r25, 0x00	; 0
     268:	20 91 92 03 	lds	r18, 0x0392
     26c:	82 1b       	sub	r24, r18
     26e:	91 09       	sbc	r25, r1
     270:	40 96       	adiw	r24, 0x10	; 16
     272:	60 e1       	ldi	r22, 0x10	; 16
     274:	70 e0       	ldi	r23, 0x00	; 0
     276:	74 dc       	rcall	.-1816   	; 0xfffffb60 <__eeprom_end+0xff7efb60>
     278:	08 95       	ret

0000027a <Buzz>:
     27a:	80 93 b1 00 	sts	0x00B1, r24
     27e:	60 93 b4 00 	sts	0x00B4, r22
     282:	60 93 b3 00 	sts	0x00B3, r22
     286:	82 e1       	ldi	r24, 0x12	; 18
     288:	80 93 b0 00 	sts	0x00B0, r24
     28c:	08 95       	ret

0000028e <BuzzOff>:
     28e:	10 92 b1 00 	sts	0x00B1, r1
     292:	5b 98       	cbi	0x0b, 3	; 11
     294:	08 95       	ret

00000296 <InitBuzzer>:
     296:	10 92 92 03 	sts	0x0392, r1
     29a:	10 92 51 03 	sts	0x0351, r1
     29e:	10 92 50 03 	sts	0x0350, r1
     2a2:	10 92 4f 03 	sts	0x034F, r1
     2a6:	53 9a       	sbi	0x0a, 3	; 10
     2a8:	f2 cf       	rjmp	.-28     	; 0x28e <BuzzOff>

000002aa <buz_PlayNote>:
     2aa:	e0 91 51 03 	lds	r30, 0x0351
     2ae:	f0 e0       	ldi	r31, 0x00	; 0
     2b0:	9f 01       	movw	r18, r30
     2b2:	2f 5f       	subi	r18, 0xFF	; 255
     2b4:	3f 4f       	sbci	r19, 0xFF	; 255
     2b6:	2f 70       	andi	r18, 0x0F	; 15
     2b8:	33 27       	eor	r19, r19
     2ba:	20 93 51 03 	sts	0x0351, r18
     2be:	ee 0f       	add	r30, r30
     2c0:	ff 1f       	adc	r31, r31
     2c2:	ee 0f       	add	r30, r30
     2c4:	ff 1f       	adc	r31, r31
     2c6:	ee 5a       	subi	r30, 0xAE	; 174
     2c8:	fc 4f       	sbci	r31, 0xFC	; 252
     2ca:	60 83       	st	Z, r22
     2cc:	71 83       	std	Z+1, r23	; 0x01
     2ce:	82 83       	std	Z+2, r24	; 0x02
     2d0:	93 83       	std	Z+3, r25	; 0x03
     2d2:	08 95       	ret

000002d4 <buz_PlayMelody>:
     2d4:	0f 93       	push	r16
     2d6:	1f 93       	push	r17
     2d8:	cf 93       	push	r28
     2da:	df 93       	push	r29
     2dc:	d8 2f       	mov	r29, r24
     2de:	8b 01       	movw	r16, r22
     2e0:	c0 e0       	ldi	r28, 0x00	; 0
     2e2:	cd 17       	cp	r28, r29
     2e4:	49 f0       	breq	.+18     	; 0x2f8 <buz_PlayMelody+0x24>
     2e6:	f8 01       	movw	r30, r16
     2e8:	61 91       	ld	r22, Z+
     2ea:	71 91       	ld	r23, Z+
     2ec:	81 91       	ld	r24, Z+
     2ee:	91 91       	ld	r25, Z+
     2f0:	8f 01       	movw	r16, r30
     2f2:	db df       	rcall	.-74     	; 0x2aa <buz_PlayNote>
     2f4:	cf 5f       	subi	r28, 0xFF	; 255
     2f6:	f5 cf       	rjmp	.-22     	; 0x2e2 <buz_PlayMelody+0xe>
     2f8:	df 91       	pop	r29
     2fa:	cf 91       	pop	r28
     2fc:	1f 91       	pop	r17
     2fe:	0f 91       	pop	r16
     300:	08 95       	ret

00000302 <BuzzerCyclic>:
     302:	80 91 4f 03 	lds	r24, 0x034F
     306:	90 91 50 03 	lds	r25, 0x0350
     30a:	00 97       	sbiw	r24, 0x00	; 0
     30c:	41 f0       	breq	.+16     	; 0x31e <BuzzerCyclic+0x1c>
     30e:	01 97       	sbiw	r24, 0x01	; 1
     310:	90 93 50 03 	sts	0x0350, r25
     314:	80 93 4f 03 	sts	0x034F, r24
     318:	89 2b       	or	r24, r25
     31a:	f1 f4       	brne	.+60     	; 0x358 <BuzzerCyclic+0x56>
     31c:	b8 cf       	rjmp	.-144    	; 0x28e <BuzzOff>
     31e:	e0 91 92 03 	lds	r30, 0x0392
     322:	80 91 51 03 	lds	r24, 0x0351
     326:	e8 17       	cp	r30, r24
     328:	b9 f0       	breq	.+46     	; 0x358 <BuzzerCyclic+0x56>
     32a:	84 e0       	ldi	r24, 0x04	; 4
     32c:	e8 9f       	mul	r30, r24
     32e:	f0 01       	movw	r30, r0
     330:	11 24       	eor	r1, r1
     332:	ee 5a       	subi	r30, 0xAE	; 174
     334:	fc 4f       	sbci	r31, 0xFC	; 252
     336:	82 81       	ldd	r24, Z+2	; 0x02
     338:	93 81       	ldd	r25, Z+3	; 0x03
     33a:	90 93 50 03 	sts	0x0350, r25
     33e:	80 93 4f 03 	sts	0x034F, r24
     342:	61 81       	ldd	r22, Z+1	; 0x01
     344:	80 81       	ld	r24, Z
     346:	99 df       	rcall	.-206    	; 0x27a <Buzz>
     348:	80 91 92 03 	lds	r24, 0x0392
     34c:	90 e0       	ldi	r25, 0x00	; 0
     34e:	01 96       	adiw	r24, 0x01	; 1
     350:	8f 70       	andi	r24, 0x0F	; 15
     352:	99 27       	eor	r25, r25
     354:	80 93 92 03 	sts	0x0392, r24
     358:	08 95       	ret

0000035a <ConfigReadTxConfig>:
     35a:	4f e1       	ldi	r20, 0x1F	; 31
     35c:	50 e0       	ldi	r21, 0x00	; 0
     35e:	60 e0       	ldi	r22, 0x00	; 0
     360:	70 e0       	ldi	r23, 0x00	; 0
     362:	83 e9       	ldi	r24, 0x93	; 147
     364:	93 e0       	ldi	r25, 0x03	; 3
     366:	83 cc       	rjmp	.-1786   	; 0xfffffc6e <__eeprom_end+0xff7efc6e>

00000368 <ConfigSaveTxConfig>:
     368:	4f e1       	ldi	r20, 0x1F	; 31
     36a:	50 e0       	ldi	r21, 0x00	; 0
     36c:	60 e0       	ldi	r22, 0x00	; 0
     36e:	70 e0       	ldi	r23, 0x00	; 0
     370:	83 e9       	ldi	r24, 0x93	; 147
     372:	93 e0       	ldi	r25, 0x03	; 3
     374:	8c cc       	rjmp	.-1768   	; 0xfffffc8e <__eeprom_end+0xff7efc8e>

00000376 <ConfigSaveModelConfig>:
     376:	60 91 98 03 	lds	r22, 0x0398
     37a:	8c e4       	ldi	r24, 0x4C	; 76
     37c:	68 9f       	mul	r22, r24
     37e:	b0 01       	movw	r22, r0
     380:	11 24       	eor	r1, r1
     382:	6e 5c       	subi	r22, 0xCE	; 206
     384:	7f 4f       	sbci	r23, 0xFF	; 255
     386:	4c e4       	ldi	r20, 0x4C	; 76
     388:	50 e0       	ldi	r21, 0x00	; 0
     38a:	82 eb       	ldi	r24, 0xB2	; 178
     38c:	93 e0       	ldi	r25, 0x03	; 3
     38e:	7f cc       	rjmp	.-1794   	; 0xfffffc8e <__eeprom_end+0xff7efc8e>

00000390 <ConfigSaveTrim>:
     390:	60 91 98 03 	lds	r22, 0x0398
     394:	8c e4       	ldi	r24, 0x4C	; 76
     396:	68 9f       	mul	r22, r24
     398:	b0 01       	movw	r22, r0
     39a:	11 24       	eor	r1, r1
     39c:	67 5c       	subi	r22, 0xC7	; 199
     39e:	7f 4f       	sbci	r23, 0xFF	; 255
     3a0:	4c e4       	ldi	r20, 0x4C	; 76
     3a2:	50 e0       	ldi	r21, 0x00	; 0
     3a4:	89 eb       	ldi	r24, 0xB9	; 185
     3a6:	93 e0       	ldi	r25, 0x03	; 3
     3a8:	72 cc       	rjmp	.-1820   	; 0xfffffc8e <__eeprom_end+0xff7efc8e>

000003aa <configSet_Tx_options>:
     3aa:	88 30       	cpi	r24, 0x08	; 8
     3ac:	c8 f4       	brcc	.+50     	; 0x3e0 <configSet_Tx_options+0x36>
     3ae:	40 91 99 03 	lds	r20, 0x0399
     3b2:	21 e0       	ldi	r18, 0x01	; 1
     3b4:	30 e0       	ldi	r19, 0x00	; 0
     3b6:	66 23       	and	r22, r22
     3b8:	41 f0       	breq	.+16     	; 0x3ca <configSet_Tx_options+0x20>
     3ba:	01 c0       	rjmp	.+2      	; 0x3be <configSet_Tx_options+0x14>
     3bc:	22 0f       	add	r18, r18
     3be:	8a 95       	dec	r24
     3c0:	ea f7       	brpl	.-6      	; 0x3bc <configSet_Tx_options+0x12>
     3c2:	24 2b       	or	r18, r20
     3c4:	20 93 99 03 	sts	0x0399, r18
     3c8:	08 95       	ret
     3ca:	b9 01       	movw	r22, r18
     3cc:	02 c0       	rjmp	.+4      	; 0x3d2 <configSet_Tx_options+0x28>
     3ce:	66 0f       	add	r22, r22
     3d0:	77 1f       	adc	r23, r23
     3d2:	8a 95       	dec	r24
     3d4:	e2 f7       	brpl	.-8      	; 0x3ce <configSet_Tx_options+0x24>
     3d6:	cb 01       	movw	r24, r22
     3d8:	80 95       	com	r24
     3da:	84 23       	and	r24, r20
     3dc:	80 93 99 03 	sts	0x0399, r24
     3e0:	08 95       	ret

000003e2 <ConfigSetStic_Mode>:
     3e2:	80 93 97 03 	sts	0x0397, r24
     3e6:	08 95       	ret

000003e8 <ConfigSetRF_Mode>:
     3e8:	80 93 b7 03 	sts	0x03B7, r24
     3ec:	94 c5       	rjmp	.+2856   	; 0xf16 <tx_SetMode>

000003ee <ConfigResetModelConfig>:
     3ee:	2c e4       	ldi	r18, 0x4C	; 76
     3f0:	82 9f       	mul	r24, r18
     3f2:	c0 01       	movw	r24, r0
     3f4:	11 24       	eor	r1, r1
     3f6:	fc 01       	movw	r30, r24
     3f8:	e4 5e       	subi	r30, 0xE4	; 228
     3fa:	fe 4f       	sbci	r31, 0xFE	; 254
     3fc:	8c e4       	ldi	r24, 0x4C	; 76
     3fe:	a2 eb       	ldi	r26, 0xB2	; 178
     400:	b3 e0       	ldi	r27, 0x03	; 3
     402:	01 90       	ld	r0, Z+
     404:	0d 92       	st	X+, r0
     406:	8a 95       	dec	r24
     408:	e1 f7       	brne	.-8      	; 0x402 <ConfigResetModelConfig+0x14>
     40a:	08 95       	ret

0000040c <configSet_ModelNr>:
     40c:	80 93 98 03 	sts	0x0398, r24
     410:	85 d5       	rcall	.+2826   	; 0xf1c <tx_SetModelNr>
     412:	60 91 98 03 	lds	r22, 0x0398
     416:	2c e4       	ldi	r18, 0x4C	; 76
     418:	62 9f       	mul	r22, r18
     41a:	b0 01       	movw	r22, r0
     41c:	11 24       	eor	r1, r1
     41e:	6e 5c       	subi	r22, 0xCE	; 206
     420:	7f 4f       	sbci	r23, 0xFF	; 255
     422:	4c e4       	ldi	r20, 0x4C	; 76
     424:	50 e0       	ldi	r21, 0x00	; 0
     426:	82 eb       	ldi	r24, 0xB2	; 178
     428:	93 e0       	ldi	r25, 0x03	; 3
     42a:	21 dc       	rcall	.-1982   	; 0xfffffc6e <__eeprom_end+0xff7efc6e>
     42c:	80 91 b2 03 	lds	r24, 0x03B2
     430:	90 91 b3 03 	lds	r25, 0x03B3
     434:	a0 91 b4 03 	lds	r26, 0x03B4
     438:	b0 91 b5 03 	lds	r27, 0x03B5
     43c:	85 30       	cpi	r24, 0x05	; 5
     43e:	92 40       	sbci	r25, 0x02	; 2
     440:	af 44       	sbci	r26, 0x4F	; 79
     442:	bd 44       	sbci	r27, 0x4D	; 77
     444:	19 f0       	breq	.+6      	; 0x44c <configSet_ModelNr+0x40>
     446:	80 e0       	ldi	r24, 0x00	; 0
     448:	d2 df       	rcall	.-92     	; 0x3ee <ConfigResetModelConfig>
     44a:	95 cf       	rjmp	.-214    	; 0x376 <ConfigSaveModelConfig>
     44c:	08 95       	ret

0000044e <ConfigResetTxConfig>:
     44e:	e3 e9       	ldi	r30, 0x93	; 147
     450:	f3 e0       	ldi	r31, 0x03	; 3
     452:	15 82       	std	Z+5, r1	; 0x05
     454:	81 e0       	ldi	r24, 0x01	; 1
     456:	84 83       	std	Z+4, r24	; 0x04
     458:	81 e0       	ldi	r24, 0x01	; 1
     45a:	92 e0       	ldi	r25, 0x02	; 2
     45c:	a8 e5       	ldi	r26, 0x58	; 88
     45e:	b4 e5       	ldi	r27, 0x54	; 84
     460:	80 83       	st	Z, r24
     462:	91 83       	std	Z+1, r25	; 0x01
     464:	a2 83       	std	Z+2, r26	; 0x02
     466:	b3 83       	std	Z+3, r27	; 0x03
     468:	80 e3       	ldi	r24, 0x30	; 48
     46a:	86 83       	std	Z+6, r24	; 0x06
     46c:	10 86       	std	Z+8, r1	; 0x08
     46e:	17 82       	std	Z+7, r1	; 0x07
     470:	16 86       	std	Z+14, r1	; 0x0e
     472:	15 86       	std	Z+13, r1	; 0x0d
     474:	14 8a       	std	Z+20, r1	; 0x14
     476:	13 8a       	std	Z+19, r1	; 0x13
     478:	12 8e       	std	Z+26, r1	; 0x1a
     47a:	11 8e       	std	Z+25, r1	; 0x19
     47c:	80 e0       	ldi	r24, 0x00	; 0
     47e:	92 e0       	ldi	r25, 0x02	; 2
     480:	92 87       	std	Z+10, r25	; 0x0a
     482:	81 87       	std	Z+9, r24	; 0x09
     484:	90 8b       	std	Z+16, r25	; 0x10
     486:	87 87       	std	Z+15, r24	; 0x0f
     488:	96 8b       	std	Z+22, r25	; 0x16
     48a:	85 8b       	std	Z+21, r24	; 0x15
     48c:	94 8f       	std	Z+28, r25	; 0x1c
     48e:	83 8f       	std	Z+27, r24	; 0x1b
     490:	8f ef       	ldi	r24, 0xFF	; 255
     492:	93 e0       	ldi	r25, 0x03	; 3
     494:	94 87       	std	Z+12, r25	; 0x0c
     496:	83 87       	std	Z+11, r24	; 0x0b
     498:	92 8b       	std	Z+18, r25	; 0x12
     49a:	81 8b       	std	Z+17, r24	; 0x11
     49c:	90 8f       	std	Z+24, r25	; 0x18
     49e:	87 8b       	std	Z+23, r24	; 0x17
     4a0:	96 8f       	std	Z+30, r25	; 0x1e
     4a2:	85 8f       	std	Z+29, r24	; 0x1d
     4a4:	80 e0       	ldi	r24, 0x00	; 0
     4a6:	b2 cf       	rjmp	.-156    	; 0x40c <configSet_ModelNr>

000004a8 <ConfigInit>:
     4a8:	58 df       	rcall	.-336    	; 0x35a <ConfigReadTxConfig>
     4aa:	80 91 93 03 	lds	r24, 0x0393
     4ae:	90 91 94 03 	lds	r25, 0x0394
     4b2:	a0 91 95 03 	lds	r26, 0x0395
     4b6:	b0 91 96 03 	lds	r27, 0x0396
     4ba:	81 30       	cpi	r24, 0x01	; 1
     4bc:	92 40       	sbci	r25, 0x02	; 2
     4be:	a8 45       	sbci	r26, 0x58	; 88
     4c0:	b4 45       	sbci	r27, 0x54	; 84
     4c2:	11 f0       	breq	.+4      	; 0x4c8 <ConfigInit+0x20>
     4c4:	c4 df       	rcall	.-120    	; 0x44e <ConfigResetTxConfig>
     4c6:	50 df       	rcall	.-352    	; 0x368 <ConfigSaveTxConfig>
     4c8:	80 91 98 03 	lds	r24, 0x0398
     4cc:	9f cf       	rjmp	.-194    	; 0x40c <configSet_ModelNr>

000004ce <expou>:
     4ce:	8f 92       	push	r8
     4d0:	9f 92       	push	r9
     4d2:	af 92       	push	r10
     4d4:	bf 92       	push	r11
     4d6:	cf 92       	push	r12
     4d8:	df 92       	push	r13
     4da:	ef 92       	push	r14
     4dc:	ff 92       	push	r15
     4de:	1f 93       	push	r17
     4e0:	cf 93       	push	r28
     4e2:	df 93       	push	r29
     4e4:	ec 01       	movw	r28, r24
     4e6:	16 2f       	mov	r17, r22
     4e8:	a4 e6       	ldi	r26, 0x64	; 100
     4ea:	b0 e0       	ldi	r27, 0x00	; 0
     4ec:	a6 1b       	sub	r26, r22
     4ee:	b1 09       	sbc	r27, r1
     4f0:	9c 01       	movw	r18, r24
     4f2:	99 db       	rcall	.-2254   	; 0xfffffc26 <__eeprom_end+0xff7efc26>
     4f4:	6b 01       	movw	r12, r22
     4f6:	7c 01       	movw	r14, r24
     4f8:	22 e3       	ldi	r18, 0x32	; 50
     4fa:	c2 0e       	add	r12, r18
     4fc:	d1 1c       	adc	r13, r1
     4fe:	e1 1c       	adc	r14, r1
     500:	f1 1c       	adc	r15, r1
     502:	9e 01       	movw	r18, r28
     504:	de 01       	movw	r26, r28
     506:	83 db       	rcall	.-2298   	; 0xfffffc0e <__eeprom_end+0xff7efc0e>
     508:	20 ed       	ldi	r18, 0xD0	; 208
     50a:	82 2e       	mov	r8, r18
     50c:	27 e0       	ldi	r18, 0x07	; 7
     50e:	92 2e       	mov	r9, r18
     510:	a1 2c       	mov	r10, r1
     512:	b1 2c       	mov	r11, r1
     514:	a5 01       	movw	r20, r10
     516:	94 01       	movw	r18, r8
     518:	36 db       	rcall	.-2452   	; 0xfffffb86 <__eeprom_end+0xff7efb86>
     51a:	de 01       	movw	r26, r28
     51c:	8a db       	rcall	.-2284   	; 0xfffffc32 <__eeprom_end+0xff7efc32>
     51e:	a5 01       	movw	r20, r10
     520:	94 01       	movw	r18, r8
     522:	31 db       	rcall	.-2462   	; 0xfffffb86 <__eeprom_end+0xff7efb86>
     524:	a1 2f       	mov	r26, r17
     526:	b0 e0       	ldi	r27, 0x00	; 0
     528:	84 db       	rcall	.-2296   	; 0xfffffc32 <__eeprom_end+0xff7efc32>
     52a:	6c 0d       	add	r22, r12
     52c:	7d 1d       	adc	r23, r13
     52e:	8e 1d       	adc	r24, r14
     530:	9f 1d       	adc	r25, r15
     532:	24 e6       	ldi	r18, 0x64	; 100
     534:	30 e0       	ldi	r19, 0x00	; 0
     536:	40 e0       	ldi	r20, 0x00	; 0
     538:	50 e0       	ldi	r21, 0x00	; 0
     53a:	25 db       	rcall	.-2486   	; 0xfffffb86 <__eeprom_end+0xff7efb86>
     53c:	c9 01       	movw	r24, r18
     53e:	df 91       	pop	r29
     540:	cf 91       	pop	r28
     542:	1f 91       	pop	r17
     544:	ff 90       	pop	r15
     546:	ef 90       	pop	r14
     548:	df 90       	pop	r13
     54a:	cf 90       	pop	r12
     54c:	bf 90       	pop	r11
     54e:	af 90       	pop	r10
     550:	9f 90       	pop	r9
     552:	8f 90       	pop	r8
     554:	08 95       	ret

00000556 <expo>:
     556:	9b 01       	movw	r18, r22
     558:	80 53       	subi	r24, 0x30	; 48
     55a:	98 4f       	sbci	r25, 0xF8	; 248
     55c:	68 e2       	ldi	r22, 0x28	; 40
     55e:	70 e0       	ldi	r23, 0x00	; 0
     560:	ff da       	rcall	.-2562   	; 0xfffffb60 <__eeprom_end+0xff7efb60>
     562:	61 15       	cp	r22, r1
     564:	71 05       	cpc	r23, r1
     566:	69 f0       	breq	.+26     	; 0x582 <expo+0x2c>
     568:	37 ff       	sbrs	r19, 7
     56a:	09 c0       	rjmp	.+18     	; 0x57e <expo+0x28>
     56c:	88 27       	eor	r24, r24
     56e:	99 27       	eor	r25, r25
     570:	82 1b       	sub	r24, r18
     572:	93 0b       	sbc	r25, r19
     574:	ac df       	rcall	.-168    	; 0x4ce <expou>
     576:	91 95       	neg	r25
     578:	81 95       	neg	r24
     57a:	91 09       	sbc	r25, r1
     57c:	08 95       	ret
     57e:	c9 01       	movw	r24, r18
     580:	a6 cf       	rjmp	.-180    	; 0x4ce <expou>
     582:	c9 01       	movw	r24, r18
     584:	08 95       	ret

00000586 <Scale>:
     586:	8f 92       	push	r8
     588:	9f 92       	push	r9
     58a:	af 92       	push	r10
     58c:	bf 92       	push	r11
     58e:	cf 92       	push	r12
     590:	df 92       	push	r13
     592:	ef 92       	push	r14
     594:	ff 92       	push	r15
     596:	0f 93       	push	r16
     598:	1f 93       	push	r17
     59a:	cf 93       	push	r28
     59c:	df 93       	push	r29
     59e:	ea 01       	movw	r28, r20
     5a0:	79 01       	movw	r14, r18
     5a2:	fb 01       	movw	r30, r22
     5a4:	e8 1b       	sub	r30, r24
     5a6:	f9 0b       	sbc	r31, r25
     5a8:	24 1b       	sub	r18, r20
     5aa:	35 0b       	sbc	r19, r21
     5ac:	d8 01       	movw	r26, r16
     5ae:	a8 1b       	sub	r26, r24
     5b0:	b9 0b       	sbc	r27, r25
     5b2:	27 db       	rcall	.-2482   	; 0xfffffc02 <__eeprom_end+0xff7efc02>
     5b4:	9f 01       	movw	r18, r30
     5b6:	f7 ff       	sbrs	r31, 7
     5b8:	02 c0       	rjmp	.+4      	; 0x5be <Scale+0x38>
     5ba:	2f 5f       	subi	r18, 0xFF	; 255
     5bc:	3f 4f       	sbci	r19, 0xFF	; 255
     5be:	35 95       	asr	r19
     5c0:	27 95       	ror	r18
     5c2:	89 01       	movw	r16, r18
     5c4:	33 0f       	add	r19, r19
     5c6:	22 0b       	sbc	r18, r18
     5c8:	33 0b       	sbc	r19, r19
     5ca:	60 0f       	add	r22, r16
     5cc:	71 1f       	adc	r23, r17
     5ce:	82 1f       	adc	r24, r18
     5d0:	93 1f       	adc	r25, r19
     5d2:	9f 01       	movw	r18, r30
     5d4:	ff 0f       	add	r31, r31
     5d6:	44 0b       	sbc	r20, r20
     5d8:	55 0b       	sbc	r21, r21
     5da:	f7 da       	rcall	.-2578   	; 0xfffffbca <__eeprom_end+0xff7efbca>
     5dc:	4e 01       	movw	r8, r28
     5de:	dd 0f       	add	r29, r29
     5e0:	aa 08       	sbc	r10, r10
     5e2:	bb 08       	sbc	r11, r11
     5e4:	67 01       	movw	r12, r14
     5e6:	ff 0c       	add	r15, r15
     5e8:	ee 08       	sbc	r14, r14
     5ea:	ff 08       	sbc	r15, r15
     5ec:	da 01       	movw	r26, r20
     5ee:	c9 01       	movw	r24, r18
     5f0:	88 0d       	add	r24, r8
     5f2:	99 1d       	adc	r25, r9
     5f4:	aa 1d       	adc	r26, r10
     5f6:	bb 1d       	adc	r27, r11
     5f8:	c8 16       	cp	r12, r24
     5fa:	d9 06       	cpc	r13, r25
     5fc:	ea 06       	cpc	r14, r26
     5fe:	fb 06       	cpc	r15, r27
     600:	14 f4       	brge	.+4      	; 0x606 <Scale+0x80>
     602:	d7 01       	movw	r26, r14
     604:	c6 01       	movw	r24, r12
     606:	88 15       	cp	r24, r8
     608:	99 05       	cpc	r25, r9
     60a:	aa 05       	cpc	r26, r10
     60c:	bb 05       	cpc	r27, r11
     60e:	14 f4       	brge	.+4      	; 0x614 <Scale+0x8e>
     610:	d5 01       	movw	r26, r10
     612:	c4 01       	movw	r24, r8
     614:	df 91       	pop	r29
     616:	cf 91       	pop	r28
     618:	1f 91       	pop	r17
     61a:	0f 91       	pop	r16
     61c:	ff 90       	pop	r15
     61e:	ef 90       	pop	r14
     620:	df 90       	pop	r13
     622:	cf 90       	pop	r12
     624:	bf 90       	pop	r11
     626:	af 90       	pop	r10
     628:	9f 90       	pop	r9
     62a:	8f 90       	pop	r8
     62c:	08 95       	ret

0000062e <ScaleHalf>:
     62e:	0f 93       	push	r16
     630:	1f 93       	push	r17
     632:	8a 01       	movw	r16, r20
     634:	20 ed       	ldi	r18, 0xD0	; 208
     636:	37 e0       	ldi	r19, 0x07	; 7
     638:	40 e0       	ldi	r20, 0x00	; 0
     63a:	50 e0       	ldi	r21, 0x00	; 0
     63c:	a4 df       	rcall	.-184    	; 0x586 <Scale>
     63e:	1f 91       	pop	r17
     640:	0f 91       	pop	r16
     642:	08 95       	ret

00000644 <Rate>:
     644:	9b 01       	movw	r18, r22
     646:	dc 01       	movw	r26, r24
     648:	dc da       	rcall	.-2632   	; 0xfffffc02 <__eeprom_end+0xff7efc02>
     64a:	68 51       	subi	r22, 0x18	; 24
     64c:	7c 4f       	sbci	r23, 0xFC	; 252
     64e:	8f 4f       	sbci	r24, 0xFF	; 255
     650:	9f 4f       	sbci	r25, 0xFF	; 255
     652:	20 ed       	ldi	r18, 0xD0	; 208
     654:	37 e0       	ldi	r19, 0x07	; 7
     656:	40 e0       	ldi	r20, 0x00	; 0
     658:	50 e0       	ldi	r21, 0x00	; 0
     65a:	b7 da       	rcall	.-2706   	; 0xfffffbca <__eeprom_end+0xff7efbca>
     65c:	c9 01       	movw	r24, r18
     65e:	08 95       	ret

00000660 <curveXpoint>:
     660:	0f 93       	push	r16
     662:	1f 93       	push	r17
     664:	fc 01       	movw	r30, r24
     666:	8b 01       	movw	r16, r22
     668:	82 81       	ldd	r24, Z+2	; 0x02
     66a:	93 81       	ldd	r25, Z+3	; 0x03
     66c:	16 16       	cp	r1, r22
     66e:	17 06       	cpc	r1, r23
     670:	44 f0       	brlt	.+16     	; 0x682 <curveXpoint+0x22>
     672:	40 81       	ld	r20, Z
     674:	51 81       	ldd	r21, Z+1	; 0x01
     676:	9c 01       	movw	r18, r24
     678:	60 e0       	ldi	r22, 0x00	; 0
     67a:	70 e0       	ldi	r23, 0x00	; 0
     67c:	80 e3       	ldi	r24, 0x30	; 48
     67e:	98 ef       	ldi	r25, 0xF8	; 248
     680:	07 c0       	rjmp	.+14     	; 0x690 <curveXpoint+0x30>
     682:	24 81       	ldd	r18, Z+4	; 0x04
     684:	35 81       	ldd	r19, Z+5	; 0x05
     686:	ac 01       	movw	r20, r24
     688:	60 ed       	ldi	r22, 0xD0	; 208
     68a:	77 e0       	ldi	r23, 0x07	; 7
     68c:	80 e0       	ldi	r24, 0x00	; 0
     68e:	90 e0       	ldi	r25, 0x00	; 0
     690:	7a df       	rcall	.-268    	; 0x586 <Scale>
     692:	1f 91       	pop	r17
     694:	0f 91       	pop	r16
     696:	08 95       	ret

00000698 <mix>:
     698:	4f 92       	push	r4
     69a:	5f 92       	push	r5
     69c:	6f 92       	push	r6
     69e:	7f 92       	push	r7
     6a0:	af 92       	push	r10
     6a2:	bf 92       	push	r11
     6a4:	cf 92       	push	r12
     6a6:	df 92       	push	r13
     6a8:	ef 92       	push	r14
     6aa:	ff 92       	push	r15
     6ac:	0f 93       	push	r16
     6ae:	1f 93       	push	r17
     6b0:	cf 93       	push	r28
     6b2:	df 93       	push	r29
     6b4:	ec 01       	movw	r28, r24
     6b6:	8b 01       	movw	r16, r22
     6b8:	5c 01       	movw	r10, r24
     6ba:	86 e0       	ldi	r24, 0x06	; 6
     6bc:	a8 0e       	add	r10, r24
     6be:	b1 1c       	adc	r11, r1
     6c0:	c1 2c       	mov	r12, r1
     6c2:	d1 2c       	mov	r13, r1
     6c4:	76 01       	movw	r14, r12
     6c6:	20 ed       	ldi	r18, 0xD0	; 208
     6c8:	42 2e       	mov	r4, r18
     6ca:	27 e0       	ldi	r18, 0x07	; 7
     6cc:	52 2e       	mov	r5, r18
     6ce:	61 2c       	mov	r6, r1
     6d0:	71 2c       	mov	r7, r1
     6d2:	29 91       	ld	r18, Y+
     6d4:	39 91       	ld	r19, Y+
     6d6:	f8 01       	movw	r30, r16
     6d8:	a1 91       	ld	r26, Z+
     6da:	b1 91       	ld	r27, Z+
     6dc:	8f 01       	movw	r16, r30
     6de:	91 da       	rcall	.-2782   	; 0xfffffc02 <__eeprom_end+0xff7efc02>
     6e0:	a3 01       	movw	r20, r6
     6e2:	92 01       	movw	r18, r4
     6e4:	72 da       	rcall	.-2844   	; 0xfffffbca <__eeprom_end+0xff7efbca>
     6e6:	c2 0e       	add	r12, r18
     6e8:	d3 1e       	adc	r13, r19
     6ea:	e4 1e       	adc	r14, r20
     6ec:	f5 1e       	adc	r15, r21
     6ee:	ca 15       	cp	r28, r10
     6f0:	db 05       	cpc	r29, r11
     6f2:	79 f7       	brne	.-34     	; 0x6d2 <mix+0x3a>
     6f4:	f1 ed       	ldi	r31, 0xD1	; 209
     6f6:	cf 16       	cp	r12, r31
     6f8:	f7 e0       	ldi	r31, 0x07	; 7
     6fa:	df 06       	cpc	r13, r31
     6fc:	e1 04       	cpc	r14, r1
     6fe:	f1 04       	cpc	r15, r1
     700:	84 f4       	brge	.+32     	; 0x722 <mix+0x8a>
     702:	80 e3       	ldi	r24, 0x30	; 48
     704:	c8 16       	cp	r12, r24
     706:	88 ef       	ldi	r24, 0xF8	; 248
     708:	d8 06       	cpc	r13, r24
     70a:	8f ef       	ldi	r24, 0xFF	; 255
     70c:	e8 06       	cpc	r14, r24
     70e:	f8 06       	cpc	r15, r24
     710:	74 f4       	brge	.+28     	; 0x72e <mix+0x96>
     712:	80 e3       	ldi	r24, 0x30	; 48
     714:	c8 2e       	mov	r12, r24
     716:	88 ef       	ldi	r24, 0xF8	; 248
     718:	d8 2e       	mov	r13, r24
     71a:	ee 24       	eor	r14, r14
     71c:	ea 94       	dec	r14
     71e:	fe 2c       	mov	r15, r14
     720:	06 c0       	rjmp	.+12     	; 0x72e <mix+0x96>
     722:	90 ed       	ldi	r25, 0xD0	; 208
     724:	c9 2e       	mov	r12, r25
     726:	97 e0       	ldi	r25, 0x07	; 7
     728:	d9 2e       	mov	r13, r25
     72a:	e1 2c       	mov	r14, r1
     72c:	f1 2c       	mov	r15, r1
     72e:	c6 01       	movw	r24, r12
     730:	df 91       	pop	r29
     732:	cf 91       	pop	r28
     734:	1f 91       	pop	r17
     736:	0f 91       	pop	r16
     738:	ff 90       	pop	r15
     73a:	ef 90       	pop	r14
     73c:	df 90       	pop	r13
     73e:	cf 90       	pop	r12
     740:	bf 90       	pop	r11
     742:	af 90       	pop	r10
     744:	7f 90       	pop	r7
     746:	6f 90       	pop	r6
     748:	5f 90       	pop	r5
     74a:	4f 90       	pop	r4
     74c:	08 95       	ret

0000074e <key_cyclic>:
     74e:	40 91 02 04 	lds	r20, 0x0402
     752:	54 2f       	mov	r21, r20
     754:	51 70       	andi	r21, 0x01	; 1
     756:	29 b1       	in	r18, 0x09	; 9
     758:	36 b1       	in	r19, 0x06	; 6
     75a:	46 95       	lsr	r20
     75c:	85 2f       	mov	r24, r21
     75e:	90 e0       	ldi	r25, 0x00	; 0
     760:	84 0f       	add	r24, r20
     762:	91 1d       	adc	r25, r1
     764:	84 0f       	add	r24, r20
     766:	91 1d       	adc	r25, r1
     768:	fc 01       	movw	r30, r24
     76a:	ed 5f       	subi	r30, 0xFD	; 253
     76c:	fb 4f       	sbci	r31, 0xFB	; 251
     76e:	30 95       	com	r19
     770:	38 70       	andi	r19, 0x08	; 8
     772:	20 95       	com	r18
     774:	25 7d       	andi	r18, 0xD5	; 213
     776:	23 2b       	or	r18, r19
     778:	20 83       	st	Z, r18
     77a:	55 23       	and	r21, r21
     77c:	19 f0       	breq	.+6      	; 0x784 <key_cyclic+0x36>
     77e:	25 9a       	sbi	0x04, 5	; 4
     780:	21 98       	cbi	0x04, 1	; 4
     782:	04 c0       	rjmp	.+8      	; 0x78c <key_cyclic+0x3e>
     784:	94 b1       	in	r25, 0x04	; 4
     786:	82 e2       	ldi	r24, 0x22	; 34
     788:	89 27       	eor	r24, r25
     78a:	84 b9       	out	0x04, r24	; 4
     78c:	e3 e0       	ldi	r30, 0x03	; 3
     78e:	f4 e0       	ldi	r31, 0x04	; 4
     790:	80 e0       	ldi	r24, 0x00	; 0
     792:	2f ef       	ldi	r18, 0xFF	; 255
     794:	90 81       	ld	r25, Z
     796:	29 23       	and	r18, r25
     798:	89 2b       	or	r24, r25
     79a:	32 96       	adiw	r30, 0x02	; 2
     79c:	94 e0       	ldi	r25, 0x04	; 4
     79e:	eb 30       	cpi	r30, 0x0B	; 11
     7a0:	f9 07       	cpc	r31, r25
     7a2:	c1 f7       	brne	.-16     	; 0x794 <key_cyclic+0x46>
     7a4:	90 91 fe 03 	lds	r25, 0x03FE
     7a8:	92 2b       	or	r25, r18
     7aa:	89 23       	and	r24, r25
     7ac:	80 93 fe 03 	sts	0x03FE, r24
     7b0:	20 e0       	ldi	r18, 0x00	; 0
     7b2:	30 e0       	ldi	r19, 0x00	; 0
     7b4:	80 e0       	ldi	r24, 0x00	; 0
     7b6:	4f ef       	ldi	r20, 0xFF	; 255
     7b8:	f9 01       	movw	r30, r18
     7ba:	ed 5f       	subi	r30, 0xFD	; 253
     7bc:	fb 4f       	sbci	r31, 0xFB	; 251
     7be:	91 81       	ldd	r25, Z+1	; 0x01
     7c0:	49 23       	and	r20, r25
     7c2:	89 2b       	or	r24, r25
     7c4:	2e 5f       	subi	r18, 0xFE	; 254
     7c6:	3f 4f       	sbci	r19, 0xFF	; 255
     7c8:	28 30       	cpi	r18, 0x08	; 8
     7ca:	31 05       	cpc	r19, r1
     7cc:	a9 f7       	brne	.-22     	; 0x7b8 <key_cyclic+0x6a>
     7ce:	90 91 ff 03 	lds	r25, 0x03FF
     7d2:	94 2b       	or	r25, r20
     7d4:	89 23       	and	r24, r25
     7d6:	80 93 ff 03 	sts	0x03FF, r24
     7da:	80 91 02 04 	lds	r24, 0x0402
     7de:	8f 5f       	subi	r24, 0xFF	; 255
     7e0:	87 70       	andi	r24, 0x07	; 7
     7e2:	80 93 02 04 	sts	0x0402, r24
     7e6:	08 95       	ret

000007e8 <key_init>:
     7e8:	85 b1       	in	r24, 0x05	; 5
     7ea:	8d 7d       	andi	r24, 0xDD	; 221
     7ec:	85 b9       	out	0x05, r24	; 5
     7ee:	25 9a       	sbi	0x04, 5	; 4
     7f0:	21 98       	cbi	0x04, 1	; 4
     7f2:	8a b1       	in	r24, 0x0a	; 10
     7f4:	8a 72       	andi	r24, 0x2A	; 42
     7f6:	8a b9       	out	0x0a, r24	; 10
     7f8:	8b b1       	in	r24, 0x0b	; 11
     7fa:	85 6d       	ori	r24, 0xD5	; 213
     7fc:	8b b9       	out	0x0b, r24	; 11
     7fe:	87 b1       	in	r24, 0x07	; 7
     800:	88 70       	andi	r24, 0x08	; 8
     802:	87 b9       	out	0x07, r24	; 7
     804:	10 92 02 04 	sts	0x0402, r1
     808:	08 95       	ret

0000080a <Get_keys>:
     80a:	0f 93       	push	r16
     80c:	1f 93       	push	r17
     80e:	60 91 00 04 	lds	r22, 0x0400
     812:	70 91 01 04 	lds	r23, 0x0401
     816:	cb 01       	movw	r24, r22
     818:	a0 e0       	ldi	r26, 0x00	; 0
     81a:	b0 e0       	ldi	r27, 0x00	; 0
     81c:	bc 01       	movw	r22, r24
     81e:	55 27       	eor	r21, r21
     820:	44 27       	eor	r20, r20
     822:	80 91 fe 03 	lds	r24, 0x03FE
     826:	90 91 ff 03 	lds	r25, 0x03FF
     82a:	90 93 01 04 	sts	0x0401, r25
     82e:	80 93 00 04 	sts	0x0400, r24
     832:	a0 e0       	ldi	r26, 0x00	; 0
     834:	b0 e0       	ldi	r27, 0x00	; 0
     836:	8a 01       	movw	r16, r20
     838:	9b 01       	movw	r18, r22
     83a:	08 2b       	or	r16, r24
     83c:	19 2b       	or	r17, r25
     83e:	2a 2b       	or	r18, r26
     840:	3b 2b       	or	r19, r27
     842:	c9 01       	movw	r24, r18
     844:	b8 01       	movw	r22, r16
     846:	1f 91       	pop	r17
     848:	0f 91       	pop	r16
     84a:	08 95       	ret

0000084c <AddLedSequence>:
     84c:	e0 91 2e 04 	lds	r30, 0x042E
     850:	f0 e0       	ldi	r31, 0x00	; 0
     852:	9f 01       	movw	r18, r30
     854:	2f 5f       	subi	r18, 0xFF	; 255
     856:	3f 4f       	sbci	r19, 0xFF	; 255
     858:	2f 70       	andi	r18, 0x0F	; 15
     85a:	33 27       	eor	r19, r19
     85c:	20 93 2e 04 	sts	0x042E, r18
     860:	ee 0f       	add	r30, r30
     862:	ff 1f       	adc	r31, r31
     864:	e5 5f       	subi	r30, 0xF5	; 245
     866:	fb 4f       	sbci	r31, 0xFB	; 251
     868:	80 83       	st	Z, r24
     86a:	91 83       	std	Z+1, r25	; 0x01
     86c:	08 95       	ret

0000086e <SetLedStateFlashing>:
     86e:	cf 93       	push	r28
     870:	df 93       	push	r29
     872:	eb 01       	movw	r28, r22
     874:	20 91 2e 04 	lds	r18, 0x042E
     878:	20 93 2f 04 	sts	0x042F, r18
     87c:	e7 df       	rcall	.-50     	; 0x84c <AddLedSequence>
     87e:	ce 01       	movw	r24, r28
     880:	df 91       	pop	r29
     882:	cf 91       	pop	r28
     884:	e3 cf       	rjmp	.-58     	; 0x84c <AddLedSequence>

00000886 <SetLedStateSolid>:
     886:	18 bc       	out	0x28, r1	; 40
     888:	10 92 2c 04 	sts	0x042C, r1
     88c:	10 92 2b 04 	sts	0x042B, r1
     890:	10 92 2d 04 	sts	0x042D, r1
     894:	10 92 2e 04 	sts	0x042E, r1
     898:	10 92 2f 04 	sts	0x042F, r1
     89c:	88 bd       	out	0x28, r24	; 40
     89e:	08 95       	ret

000008a0 <SetLedStateCyclicSequence>:
     8a0:	0f 93       	push	r16
     8a2:	1f 93       	push	r17
     8a4:	cf 93       	push	r28
     8a6:	df 93       	push	r29
     8a8:	08 2f       	mov	r16, r24
     8aa:	80 91 2e 04 	lds	r24, 0x042E
     8ae:	80 93 2f 04 	sts	0x042F, r24
     8b2:	eb 01       	movw	r28, r22
     8b4:	10 e0       	ldi	r17, 0x00	; 0
     8b6:	10 17       	cp	r17, r16
     8b8:	29 f0       	breq	.+10     	; 0x8c4 <SetLedStateCyclicSequence+0x24>
     8ba:	89 91       	ld	r24, Y+
     8bc:	99 91       	ld	r25, Y+
     8be:	c6 df       	rcall	.-116    	; 0x84c <AddLedSequence>
     8c0:	1f 5f       	subi	r17, 0xFF	; 255
     8c2:	f9 cf       	rjmp	.-14     	; 0x8b6 <SetLedStateCyclicSequence+0x16>
     8c4:	df 91       	pop	r29
     8c6:	cf 91       	pop	r28
     8c8:	1f 91       	pop	r17
     8ca:	0f 91       	pop	r16
     8cc:	08 95       	ret

000008ce <InitLed>:
     8ce:	83 e3       	ldi	r24, 0x33	; 51
     8d0:	84 bd       	out	0x24, r24	; 36
     8d2:	83 e0       	ldi	r24, 0x03	; 3
     8d4:	85 bd       	out	0x25, r24	; 37
     8d6:	55 9a       	sbi	0x0a, 5	; 10
     8d8:	18 bc       	out	0x28, r1	; 40
     8da:	10 92 2c 04 	sts	0x042C, r1
     8de:	10 92 2b 04 	sts	0x042B, r1
     8e2:	10 92 2d 04 	sts	0x042D, r1
     8e6:	10 92 2e 04 	sts	0x042E, r1
     8ea:	10 92 2f 04 	sts	0x042F, r1
     8ee:	08 95       	ret

000008f0 <LedCyclic>:
     8f0:	80 91 2b 04 	lds	r24, 0x042B
     8f4:	90 91 2c 04 	lds	r25, 0x042C
     8f8:	00 97       	sbiw	r24, 0x00	; 0
     8fa:	91 f0       	breq	.+36     	; 0x920 <LedCyclic+0x30>
     8fc:	01 97       	sbiw	r24, 0x01	; 1
     8fe:	90 93 2c 04 	sts	0x042C, r25
     902:	80 93 2b 04 	sts	0x042B, r24
     906:	89 2b       	or	r24, r25
     908:	71 f5       	brne	.+92     	; 0x966 <LedCyclic+0x76>
     90a:	90 91 2e 04 	lds	r25, 0x042E
     90e:	80 91 2d 04 	lds	r24, 0x042D
     912:	98 13       	cpse	r25, r24
     914:	28 c0       	rjmp	.+80     	; 0x966 <LedCyclic+0x76>
     916:	80 91 2f 04 	lds	r24, 0x042F
     91a:	89 13       	cpse	r24, r25
     91c:	22 c0       	rjmp	.+68     	; 0x962 <LedCyclic+0x72>
     91e:	23 c0       	rjmp	.+70     	; 0x966 <LedCyclic+0x76>
     920:	e0 91 2d 04 	lds	r30, 0x042D
     924:	80 91 2e 04 	lds	r24, 0x042E
     928:	8e 17       	cp	r24, r30
     92a:	e9 f0       	breq	.+58     	; 0x966 <LedCyclic+0x76>
     92c:	f0 e0       	ldi	r31, 0x00	; 0
     92e:	ee 0f       	add	r30, r30
     930:	ff 1f       	adc	r31, r31
     932:	e5 5f       	subi	r30, 0xF5	; 245
     934:	fb 4f       	sbci	r31, 0xFB	; 251
     936:	80 81       	ld	r24, Z
     938:	88 bd       	out	0x28, r24	; 40
     93a:	80 91 2d 04 	lds	r24, 0x042D
     93e:	90 e0       	ldi	r25, 0x00	; 0
     940:	fc 01       	movw	r30, r24
     942:	ee 0f       	add	r30, r30
     944:	ff 1f       	adc	r31, r31
     946:	e5 5f       	subi	r30, 0xF5	; 245
     948:	fb 4f       	sbci	r31, 0xFB	; 251
     94a:	21 81       	ldd	r18, Z+1	; 0x01
     94c:	4a e0       	ldi	r20, 0x0A	; 10
     94e:	24 9f       	mul	r18, r20
     950:	90 01       	movw	r18, r0
     952:	11 24       	eor	r1, r1
     954:	30 93 2c 04 	sts	0x042C, r19
     958:	20 93 2b 04 	sts	0x042B, r18
     95c:	01 96       	adiw	r24, 0x01	; 1
     95e:	8f 70       	andi	r24, 0x0F	; 15
     960:	99 27       	eor	r25, r25
     962:	80 93 2d 04 	sts	0x042D, r24
     966:	08 95       	ret

00000968 <InitSystem>:
     968:	80 e8       	ldi	r24, 0x80	; 128
     96a:	80 93 61 00 	sts	0x0061, r24
     96e:	10 92 61 00 	sts	0x0061, r1
     972:	10 92 60 00 	sts	0x0060, r1
     976:	7a db       	rcall	.-2316   	; 0x6c <AdcInit>
     978:	37 df       	rcall	.-402    	; 0x7e8 <key_init>
     97a:	a9 df       	rcall	.-174    	; 0x8ce <InitLed>
     97c:	28 d4       	rcall	.+2128   	; 0x11ce <initTimer>
     97e:	8b dc       	rcall	.-1770   	; 0x296 <InitBuzzer>
     980:	93 dd       	rcall	.-1242   	; 0x4a8 <ConfigInit>
     982:	fe d2       	rcall	.+1532   	; 0xf80 <tx_Init>
     984:	78 94       	sei
     986:	db d4       	rcall	.+2486   	; 0x133e <UI_init>
     988:	d7 d0       	rcall	.+430    	; 0xb38 <Model_Init>
     98a:	80 e0       	ldi	r24, 0x00	; 0
     98c:	90 91 05 03 	lds	r25, 0x0305
     990:	99 23       	and	r25, r25
     992:	19 f0       	breq	.+6      	; 0x99a <InitSystem+0x32>
     994:	10 92 05 03 	sts	0x0305, r1
     998:	8f 5f       	subi	r24, 0xFF	; 255
     99a:	85 30       	cpi	r24, 0x05	; 5
     99c:	b8 f3       	brcs	.-18     	; 0x98c <InitSystem+0x24>
     99e:	08 95       	ret

000009a0 <main>:
     9a0:	e3 df       	rcall	.-58     	; 0x968 <InitSystem>
     9a2:	33 df       	rcall	.-410    	; 0x80a <Get_keys>
     9a4:	6b 01       	movw	r12, r22
     9a6:	7c 01       	movw	r14, r24
     9a8:	cb 01       	movw	r24, r22
     9aa:	d7 d8       	rcall	.-3666   	; 0xfffffb5a <__eeprom_end+0xff7efb5a>
     9ac:	88 23       	and	r24, r24
     9ae:	51 f0       	breq	.+20     	; 0x9c4 <main+0x24>
     9b0:	60 91 9a 02 	lds	r22, 0x029A
     9b4:	70 91 9b 02 	lds	r23, 0x029B
     9b8:	80 91 98 02 	lds	r24, 0x0298
     9bc:	90 91 99 02 	lds	r25, 0x0299
     9c0:	56 df       	rcall	.-340    	; 0x86e <SetLedStateFlashing>
     9c2:	27 c0       	rjmp	.+78     	; 0xa12 <main+0x72>
     9c4:	c0 fe       	sbrs	r12, 0
     9c6:	10 c0       	rjmp	.+32     	; 0x9e8 <main+0x48>
     9c8:	81 e0       	ldi	r24, 0x01	; 1
     9ca:	ab d2       	rcall	.+1366   	; 0xf22 <tx_SetBindMode>
     9cc:	6a e7       	ldi	r22, 0x7A	; 122
     9ce:	83 e0       	ldi	r24, 0x03	; 3
     9d0:	54 dc       	rcall	.-1880   	; 0x27a <Buzz>
     9d2:	60 91 0a 02 	lds	r22, 0x020A
     9d6:	70 91 0b 02 	lds	r23, 0x020B
     9da:	80 91 08 02 	lds	r24, 0x0208
     9de:	90 91 09 02 	lds	r25, 0x0209
     9e2:	45 df       	rcall	.-374    	; 0x86e <SetLedStateFlashing>
     9e4:	c2 e0       	ldi	r28, 0x02	; 2
     9e6:	16 c0       	rjmp	.+44     	; 0xa14 <main+0x74>
     9e8:	d0 fe       	sbrs	r13, 0
     9ea:	0d c0       	rjmp	.+26     	; 0xa06 <main+0x66>
     9ec:	81 e0       	ldi	r24, 0x01	; 1
     9ee:	a3 d2       	rcall	.+1350   	; 0xf36 <tx_SetRangeCheck>
     9f0:	60 e0       	ldi	r22, 0x00	; 0
     9f2:	72 e0       	ldi	r23, 0x02	; 2
     9f4:	84 e0       	ldi	r24, 0x04	; 4
     9f6:	54 df       	rcall	.-344    	; 0x8a0 <SetLedStateCyclicSequence>
     9f8:	6c e4       	ldi	r22, 0x4C	; 76
     9fa:	72 e0       	ldi	r23, 0x02	; 2
     9fc:	87 e0       	ldi	r24, 0x07	; 7
     9fe:	6a dc       	rcall	.-1836   	; 0x2d4 <buz_PlayMelody>
     a00:	c0 e0       	ldi	r28, 0x00	; 0
     a02:	d1 e0       	ldi	r29, 0x01	; 1
     a04:	08 c0       	rjmp	.+16     	; 0xa16 <main+0x76>
     a06:	80 e8       	ldi	r24, 0x80	; 128
     a08:	3e df       	rcall	.-388    	; 0x886 <SetLedStateSolid>
     a0a:	6c e4       	ldi	r22, 0x4C	; 76
     a0c:	72 e0       	ldi	r23, 0x02	; 2
     a0e:	87 e0       	ldi	r24, 0x07	; 7
     a10:	61 dc       	rcall	.-1854   	; 0x2d4 <buz_PlayMelody>
     a12:	c0 e0       	ldi	r28, 0x00	; 0
     a14:	d0 e0       	ldi	r29, 0x00	; 0
     a16:	41 2c       	mov	r4, r1
     a18:	51 2c       	mov	r5, r1
     a1a:	32 01       	movw	r6, r4
     a1c:	00 91 0a 02 	lds	r16, 0x020A
     a20:	10 91 0b 02 	lds	r17, 0x020B
     a24:	a0 90 08 02 	lds	r10, 0x0208
     a28:	b0 90 09 02 	lds	r11, 0x0209
     a2c:	80 91 05 03 	lds	r24, 0x0305
     a30:	88 23       	and	r24, r24
     a32:	c1 f0       	breq	.+48     	; 0xa64 <main+0xc4>
     a34:	10 92 05 03 	sts	0x0305, r1
     a38:	17 d1       	rcall	.+558    	; 0xc68 <ModelCalculateOutChannelsData>
     a3a:	80 e0       	ldi	r24, 0x00	; 0
     a3c:	41 d2       	rcall	.+1154   	; 0xec0 <ModelGetCannel>
     a3e:	7c 01       	movw	r14, r24
     a40:	60 e0       	ldi	r22, 0x00	; 0
     a42:	53 d2       	rcall	.+1190   	; 0xeea <tx_SetChanelData>
     a44:	dd 24       	eor	r13, r13
     a46:	d3 94       	inc	r13
     a48:	8d 2d       	mov	r24, r13
     a4a:	3a d2       	rcall	.+1140   	; 0xec0 <ModelGetCannel>
     a4c:	6d 2d       	mov	r22, r13
     a4e:	4d d2       	rcall	.+1178   	; 0xeea <tx_SetChanelData>
     a50:	d3 94       	inc	r13
     a52:	26 e0       	ldi	r18, 0x06	; 6
     a54:	d2 12       	cpse	r13, r18
     a56:	f8 cf       	rjmp	.-16     	; 0xa48 <main+0xa8>
     a58:	05 d3       	rcall	.+1546   	; 0x1064 <tx_Send>
     a5a:	4e 0c       	add	r4, r14
     a5c:	5f 1c       	adc	r5, r15
     a5e:	61 1c       	adc	r6, r1
     a60:	71 1c       	adc	r7, r1
     a62:	e4 cf       	rjmp	.-56     	; 0xa2c <main+0x8c>
     a64:	d2 de       	rcall	.-604    	; 0x80a <Get_keys>
     a66:	6b 01       	movw	r12, r22
     a68:	7c 01       	movw	r14, r24
     a6a:	cb 01       	movw	r24, r22
     a6c:	55 d8       	rcall	.-3926   	; 0xfffffb18 <__eeprom_end+0xff7efb18>
     a6e:	dd 23       	and	r29, r29
     a70:	f9 f0       	breq	.+62     	; 0xab0 <main+0x110>
     a72:	c7 01       	movw	r24, r14
     a74:	aa 27       	eor	r26, r26
     a76:	bb 27       	eor	r27, r27
     a78:	b7 01       	movw	r22, r14
     a7a:	a6 01       	movw	r20, r12
     a7c:	66 27       	eor	r22, r22
     a7e:	77 27       	eor	r23, r23
     a80:	84 27       	eor	r24, r20
     a82:	95 27       	eor	r25, r21
     a84:	a6 27       	eor	r26, r22
     a86:	b7 27       	eor	r27, r23
     a88:	b7 01       	movw	r22, r14
     a8a:	a6 01       	movw	r20, r12
     a8c:	44 27       	eor	r20, r20
     a8e:	51 70       	andi	r21, 0x01	; 1
     a90:	66 27       	eor	r22, r22
     a92:	77 27       	eor	r23, r23
     a94:	84 23       	and	r24, r20
     a96:	95 23       	and	r25, r21
     a98:	a6 23       	and	r26, r22
     a9a:	b7 23       	and	r27, r23
     a9c:	89 2b       	or	r24, r25
     a9e:	8a 2b       	or	r24, r26
     aa0:	8b 2b       	or	r24, r27
     aa2:	31 f0       	breq	.+12     	; 0xab0 <main+0x110>
     aa4:	80 e0       	ldi	r24, 0x00	; 0
     aa6:	47 d2       	rcall	.+1166   	; 0xf36 <tx_SetRangeCheck>
     aa8:	80 e8       	ldi	r24, 0x80	; 128
     aaa:	ed de       	rcall	.-550    	; 0x886 <SetLedStateSolid>
     aac:	d0 e0       	ldi	r29, 0x00	; 0
     aae:	1c c0       	rjmp	.+56     	; 0xae8 <main+0x148>
     ab0:	c7 01       	movw	r24, r14
     ab2:	b6 01       	movw	r22, r12
     ab4:	48 d0       	rcall	.+144    	; 0xb46 <Model_CheckKeys>
     ab6:	cc 23       	and	r28, r28
     ab8:	b9 f0       	breq	.+46     	; 0xae8 <main+0x148>
     aba:	c2 30       	cpi	r28, 0x02	; 2
     abc:	49 f4       	brne	.+18     	; 0xad0 <main+0x130>
     abe:	c0 fc       	sbrc	r12, 0
     ac0:	13 c0       	rjmp	.+38     	; 0xae8 <main+0x148>
     ac2:	b8 01       	movw	r22, r16
     ac4:	c5 01       	movw	r24, r10
     ac6:	d3 de       	rcall	.-602    	; 0x86e <SetLedStateFlashing>
     ac8:	64 e2       	ldi	r22, 0x24	; 36
     aca:	72 e0       	ldi	r23, 0x02	; 2
     acc:	8a e0       	ldi	r24, 0x0A	; 10
     ace:	02 dc       	rcall	.-2044   	; 0x2d4 <buz_PlayMelody>
     ad0:	c8 db       	rcall	.-2160   	; 0x262 <buz_SequenceCount>
     ad2:	81 11       	cpse	r24, r1
     ad4:	2f c0       	rjmp	.+94     	; 0xb34 <main+0x194>
     ad6:	80 e0       	ldi	r24, 0x00	; 0
     ad8:	24 d2       	rcall	.+1096   	; 0xf22 <tx_SetBindMode>
     ada:	80 e8       	ldi	r24, 0x80	; 128
     adc:	d4 de       	rcall	.-600    	; 0x886 <SetLedStateSolid>
     ade:	6c e4       	ldi	r22, 0x4C	; 76
     ae0:	72 e0       	ldi	r23, 0x02	; 2
     ae2:	87 e0       	ldi	r24, 0x07	; 7
     ae4:	f7 db       	rcall	.-2066   	; 0x2d4 <buz_PlayMelody>
     ae6:	c0 e0       	ldi	r28, 0x00	; 0
     ae8:	84 e0       	ldi	r24, 0x04	; 4
     aea:	fa da       	rcall	.-2572   	; 0xe0 <AdcGetChanel>
     aec:	8d 33       	cpi	r24, 0x3D	; 61
     aee:	92 40       	sbci	r25, 0x02	; 2
     af0:	38 f4       	brcc	.+14     	; 0xb00 <main+0x160>
     af2:	b7 db       	rcall	.-2194   	; 0x262 <buz_SequenceCount>
     af4:	81 11       	cpse	r24, r1
     af6:	04 c0       	rjmp	.+8      	; 0xb00 <main+0x160>
     af8:	6c e1       	ldi	r22, 0x1C	; 28
     afa:	72 e0       	ldi	r23, 0x02	; 2
     afc:	82 e0       	ldi	r24, 0x02	; 2
     afe:	ea db       	rcall	.-2092   	; 0x2d4 <buz_PlayMelody>
     b00:	20 91 bd 03 	lds	r18, 0x03BD
     b04:	30 e0       	ldi	r19, 0x00	; 0
     b06:	a1 ed       	ldi	r26, 0xD1	; 209
     b08:	b5 eb       	ldi	r27, 0xB5	; 181
     b0a:	81 d8       	rcall	.-3838   	; 0xfffffc0e <__eeprom_end+0xff7efc0e>
     b0c:	61 15       	cp	r22, r1
     b0e:	71 05       	cpc	r23, r1
     b10:	81 05       	cpc	r24, r1
     b12:	91 05       	cpc	r25, r1
     b14:	09 f4       	brne	.+2      	; 0xb18 <main+0x178>
     b16:	8a cf       	rjmp	.-236    	; 0xa2c <main+0x8c>
     b18:	64 15       	cp	r22, r4
     b1a:	75 05       	cpc	r23, r5
     b1c:	86 05       	cpc	r24, r6
     b1e:	97 05       	cpc	r25, r7
     b20:	08 f0       	brcs	.+2      	; 0xb24 <main+0x184>
     b22:	84 cf       	rjmp	.-248    	; 0xa2c <main+0x8c>
     b24:	9e db       	rcall	.-2244   	; 0x262 <buz_SequenceCount>
     b26:	81 11       	cpse	r24, r1
     b28:	81 cf       	rjmp	.-254    	; 0xa2c <main+0x8c>
     b2a:	6c e0       	ldi	r22, 0x0C	; 12
     b2c:	72 e0       	ldi	r23, 0x02	; 2
     b2e:	84 e0       	ldi	r24, 0x04	; 4
     b30:	d1 db       	rcall	.-2142   	; 0x2d4 <buz_PlayMelody>
     b32:	7c cf       	rjmp	.-264    	; 0xa2c <main+0x8c>
     b34:	c1 e0       	ldi	r28, 0x01	; 1
     b36:	d8 cf       	rjmp	.-80     	; 0xae8 <main+0x148>

00000b38 <Model_Init>:
     b38:	10 92 32 04 	sts	0x0432, r1
     b3c:	10 92 31 04 	sts	0x0431, r1
     b40:	10 92 30 04 	sts	0x0430, r1
     b44:	08 95       	ret

00000b46 <Model_CheckKeys>:
     b46:	8f 92       	push	r8
     b48:	9f 92       	push	r9
     b4a:	af 92       	push	r10
     b4c:	bf 92       	push	r11
     b4e:	cf 92       	push	r12
     b50:	df 92       	push	r13
     b52:	ef 92       	push	r14
     b54:	ff 92       	push	r15
     b56:	4b 01       	movw	r8, r22
     b58:	5c 01       	movw	r10, r24
     b5a:	65 01       	movw	r12, r10
     b5c:	ee 24       	eor	r14, r14
     b5e:	ff 24       	eor	r15, r15
     b60:	d5 01       	movw	r26, r10
     b62:	c4 01       	movw	r24, r8
     b64:	aa 27       	eor	r26, r26
     b66:	bb 27       	eor	r27, r27
     b68:	c8 26       	eor	r12, r24
     b6a:	d9 26       	eor	r13, r25
     b6c:	ea 26       	eor	r14, r26
     b6e:	fb 26       	eor	r15, r27
     b70:	c8 20       	and	r12, r8
     b72:	d9 20       	and	r13, r9
     b74:	ea 20       	and	r14, r10
     b76:	fb 20       	and	r15, r11
     b78:	c4 fe       	sbrs	r12, 4
     b7a:	02 c0       	rjmp	.+4      	; 0xb80 <Model_CheckKeys+0x3a>
     b7c:	80 e0       	ldi	r24, 0x00	; 0
     b7e:	d3 d2       	rcall	.+1446   	; 0x1126 <StickTrimUp>
     b80:	d4 fe       	sbrs	r13, 4
     b82:	02 c0       	rjmp	.+4      	; 0xb88 <Model_CheckKeys+0x42>
     b84:	80 e0       	ldi	r24, 0x00	; 0
     b86:	f9 d2       	rcall	.+1522   	; 0x117a <StickTrimDown>
     b88:	d2 fe       	sbrs	r13, 2
     b8a:	02 c0       	rjmp	.+4      	; 0xb90 <Model_CheckKeys+0x4a>
     b8c:	81 e0       	ldi	r24, 0x01	; 1
     b8e:	cb d2       	rcall	.+1430   	; 0x1126 <StickTrimUp>
     b90:	c2 fe       	sbrs	r12, 2
     b92:	02 c0       	rjmp	.+4      	; 0xb98 <Model_CheckKeys+0x52>
     b94:	81 e0       	ldi	r24, 0x01	; 1
     b96:	f1 d2       	rcall	.+1506   	; 0x117a <StickTrimDown>
     b98:	c7 fe       	sbrs	r12, 7
     b9a:	02 c0       	rjmp	.+4      	; 0xba0 <Model_CheckKeys+0x5a>
     b9c:	82 e0       	ldi	r24, 0x02	; 2
     b9e:	c3 d2       	rcall	.+1414   	; 0x1126 <StickTrimUp>
     ba0:	d7 fe       	sbrs	r13, 7
     ba2:	02 c0       	rjmp	.+4      	; 0xba8 <Model_CheckKeys+0x62>
     ba4:	82 e0       	ldi	r24, 0x02	; 2
     ba6:	e9 d2       	rcall	.+1490   	; 0x117a <StickTrimDown>
     ba8:	c6 fe       	sbrs	r12, 6
     baa:	02 c0       	rjmp	.+4      	; 0xbb0 <Model_CheckKeys+0x6a>
     bac:	83 e0       	ldi	r24, 0x03	; 3
     bae:	bb d2       	rcall	.+1398   	; 0x1126 <StickTrimUp>
     bb0:	d6 fe       	sbrs	r13, 6
     bb2:	02 c0       	rjmp	.+4      	; 0xbb8 <Model_CheckKeys+0x72>
     bb4:	83 e0       	ldi	r24, 0x03	; 3
     bb6:	e1 d2       	rcall	.+1474   	; 0x117a <StickTrimDown>
     bb8:	d0 fe       	sbrs	r13, 0
     bba:	2a c0       	rjmp	.+84     	; 0xc10 <Model_CheckKeys+0xca>
     bbc:	80 91 32 04 	lds	r24, 0x0432
     bc0:	8f 5f       	subi	r24, 0xFF	; 255
     bc2:	81 70       	andi	r24, 0x01	; 1
     bc4:	80 93 32 04 	sts	0x0432, r24
     bc8:	79 ef       	ldi	r23, 0xF9	; 249
     bca:	81 11       	cpse	r24, r1
     bcc:	74 e8       	ldi	r23, 0x84	; 132
     bce:	62 e0       	ldi	r22, 0x02	; 2
     bd0:	8d e7       	ldi	r24, 0x7D	; 125
     bd2:	90 e0       	ldi	r25, 0x00	; 0
     bd4:	6a db       	rcall	.-2348   	; 0x2aa <buz_PlayNote>
     bd6:	80 91 30 04 	lds	r24, 0x0430
     bda:	88 23       	and	r24, r24
     bdc:	49 f0       	breq	.+18     	; 0xbf0 <Model_CheckKeys+0xaa>
     bde:	60 91 6a 02 	lds	r22, 0x026A
     be2:	70 91 6b 02 	lds	r23, 0x026B
     be6:	80 91 68 02 	lds	r24, 0x0268
     bea:	90 91 69 02 	lds	r25, 0x0269
     bee:	0c c0       	rjmp	.+24     	; 0xc08 <Model_CheckKeys+0xc2>
     bf0:	80 91 32 04 	lds	r24, 0x0432
     bf4:	88 23       	and	r24, r24
     bf6:	51 f0       	breq	.+20     	; 0xc0c <Model_CheckKeys+0xc6>
     bf8:	60 91 6e 02 	lds	r22, 0x026E
     bfc:	70 91 6f 02 	lds	r23, 0x026F
     c00:	80 91 6c 02 	lds	r24, 0x026C
     c04:	90 91 6d 02 	lds	r25, 0x026D
     c08:	32 de       	rcall	.-924    	; 0x86e <SetLedStateFlashing>
     c0a:	02 c0       	rjmp	.+4      	; 0xc10 <Model_CheckKeys+0xca>
     c0c:	80 e8       	ldi	r24, 0x80	; 128
     c0e:	3b de       	rcall	.-906    	; 0x886 <SetLedStateSolid>
     c10:	80 91 b6 03 	lds	r24, 0x03B6
     c14:	81 11       	cpse	r24, r1
     c16:	12 c0       	rjmp	.+36     	; 0xc3c <Model_CheckKeys+0xf6>
     c18:	d5 01       	movw	r26, r10
     c1a:	c4 01       	movw	r24, r8
     c1c:	81 70       	andi	r24, 0x01	; 1
     c1e:	99 27       	eor	r25, r25
     c20:	aa 27       	eor	r26, r26
     c22:	bb 27       	eor	r27, r27
     c24:	28 2f       	mov	r18, r24
     c26:	21 70       	andi	r18, 0x01	; 1
     c28:	20 93 31 04 	sts	0x0431, r18
     c2c:	89 2b       	or	r24, r25
     c2e:	8a 2b       	or	r24, r26
     c30:	8b 2b       	or	r24, r27
     c32:	89 f0       	breq	.+34     	; 0xc56 <Model_CheckKeys+0x110>
     c34:	62 e0       	ldi	r22, 0x02	; 2
     c36:	7b e2       	ldi	r23, 0x2B	; 43
     c38:	8f e0       	ldi	r24, 0x0F	; 15
     c3a:	0b c0       	rjmp	.+22     	; 0xc52 <Model_CheckKeys+0x10c>
     c3c:	c0 fe       	sbrs	r12, 0
     c3e:	0b c0       	rjmp	.+22     	; 0xc56 <Model_CheckKeys+0x110>
     c40:	90 91 30 04 	lds	r25, 0x0430
     c44:	81 e0       	ldi	r24, 0x01	; 1
     c46:	89 27       	eor	r24, r25
     c48:	80 93 30 04 	sts	0x0430, r24
     c4c:	62 e0       	ldi	r22, 0x02	; 2
     c4e:	70 eb       	ldi	r23, 0xB0	; 176
     c50:	8d e7       	ldi	r24, 0x7D	; 125
     c52:	90 e0       	ldi	r25, 0x00	; 0
     c54:	2a db       	rcall	.-2476   	; 0x2aa <buz_PlayNote>
     c56:	ff 90       	pop	r15
     c58:	ef 90       	pop	r14
     c5a:	df 90       	pop	r13
     c5c:	cf 90       	pop	r12
     c5e:	bf 90       	pop	r11
     c60:	af 90       	pop	r10
     c62:	9f 90       	pop	r9
     c64:	8f 90       	pop	r8
     c66:	08 95       	ret

00000c68 <ModelCalculateOutChannelsData>:
     c68:	1f 93       	push	r17
     c6a:	cf 93       	push	r28
     c6c:	df 93       	push	r29
     c6e:	00 d0       	rcall	.+0      	; 0xc70 <ModelCalculateOutChannelsData+0x8>
     c70:	00 d0       	rcall	.+0      	; 0xc72 <ModelCalculateOutChannelsData+0xa>
     c72:	00 d0       	rcall	.+0      	; 0xc74 <ModelCalculateOutChannelsData+0xc>
     c74:	cd b7       	in	r28, 0x3d	; 61
     c76:	de b7       	in	r29, 0x3e	; 62
     c78:	81 e0       	ldi	r24, 0x01	; 1
     c7a:	20 d2       	rcall	.+1088   	; 0x10bc <getStickValue>
     c7c:	e0 91 32 04 	lds	r30, 0x0432
     c80:	16 e0       	ldi	r17, 0x06	; 6
     c82:	1e 9f       	mul	r17, r30
     c84:	f0 01       	movw	r30, r0
     c86:	11 24       	eor	r1, r1
     c88:	ee 54       	subi	r30, 0x4E	; 78
     c8a:	fc 4f       	sbci	r31, 0xFC	; 252
     c8c:	bc 01       	movw	r22, r24
     c8e:	80 89       	ldd	r24, Z+16	; 0x10
     c90:	91 89       	ldd	r25, Z+17	; 0x11
     c92:	61 dc       	rcall	.-1854   	; 0x556 <expo>
     c94:	e0 91 32 04 	lds	r30, 0x0432
     c98:	1e 9f       	mul	r17, r30
     c9a:	f0 01       	movw	r30, r0
     c9c:	11 24       	eor	r1, r1
     c9e:	ee 54       	subi	r30, 0x4E	; 78
     ca0:	fc 4f       	sbci	r31, 0xFC	; 252
     ca2:	bc 01       	movw	r22, r24
     ca4:	84 8d       	ldd	r24, Z+28	; 0x1c
     ca6:	95 8d       	ldd	r25, Z+29	; 0x1d
     ca8:	cd dc       	rcall	.-1638   	; 0x644 <Rate>
     caa:	9a 83       	std	Y+2, r25	; 0x02
     cac:	89 83       	std	Y+1, r24	; 0x01
     cae:	82 e0       	ldi	r24, 0x02	; 2
     cb0:	05 d2       	rcall	.+1034   	; 0x10bc <getStickValue>
     cb2:	e0 91 32 04 	lds	r30, 0x0432
     cb6:	1e 9f       	mul	r17, r30
     cb8:	f0 01       	movw	r30, r0
     cba:	11 24       	eor	r1, r1
     cbc:	ee 54       	subi	r30, 0x4E	; 78
     cbe:	fc 4f       	sbci	r31, 0xFC	; 252
     cc0:	bc 01       	movw	r22, r24
     cc2:	82 89       	ldd	r24, Z+18	; 0x12
     cc4:	93 89       	ldd	r25, Z+19	; 0x13
     cc6:	47 dc       	rcall	.-1906   	; 0x556 <expo>
     cc8:	e0 91 32 04 	lds	r30, 0x0432
     ccc:	1e 9f       	mul	r17, r30
     cce:	f0 01       	movw	r30, r0
     cd0:	11 24       	eor	r1, r1
     cd2:	ee 54       	subi	r30, 0x4E	; 78
     cd4:	fc 4f       	sbci	r31, 0xFC	; 252
     cd6:	bc 01       	movw	r22, r24
     cd8:	86 8d       	ldd	r24, Z+30	; 0x1e
     cda:	97 8d       	ldd	r25, Z+31	; 0x1f
     cdc:	b3 dc       	rcall	.-1690   	; 0x644 <Rate>
     cde:	9c 83       	std	Y+4, r25	; 0x04
     ce0:	8b 83       	std	Y+3, r24	; 0x03
     ce2:	83 e0       	ldi	r24, 0x03	; 3
     ce4:	eb d1       	rcall	.+982    	; 0x10bc <getStickValue>
     ce6:	e0 91 32 04 	lds	r30, 0x0432
     cea:	1e 9f       	mul	r17, r30
     cec:	f0 01       	movw	r30, r0
     cee:	11 24       	eor	r1, r1
     cf0:	ee 54       	subi	r30, 0x4E	; 78
     cf2:	fc 4f       	sbci	r31, 0xFC	; 252
     cf4:	bc 01       	movw	r22, r24
     cf6:	84 89       	ldd	r24, Z+20	; 0x14
     cf8:	95 89       	ldd	r25, Z+21	; 0x15
     cfa:	2d dc       	rcall	.-1958   	; 0x556 <expo>
     cfc:	e0 91 32 04 	lds	r30, 0x0432
     d00:	1e 9f       	mul	r17, r30
     d02:	f0 01       	movw	r30, r0
     d04:	11 24       	eor	r1, r1
     d06:	ee 54       	subi	r30, 0x4E	; 78
     d08:	fc 4f       	sbci	r31, 0xFC	; 252
     d0a:	bc 01       	movw	r22, r24
     d0c:	80 a1       	ldd	r24, Z+32	; 0x20
     d0e:	91 a1       	ldd	r25, Z+33	; 0x21
     d10:	99 dc       	rcall	.-1742   	; 0x644 <Rate>
     d12:	9e 83       	std	Y+6, r25	; 0x06
     d14:	8d 83       	std	Y+5, r24	; 0x05
     d16:	80 91 b6 03 	lds	r24, 0x03B6
     d1a:	81 30       	cpi	r24, 0x01	; 1
     d1c:	31 f0       	breq	.+12     	; 0xd2a <ModelCalculateOutChannelsData+0xc2>
     d1e:	08 f4       	brcc	.+2      	; 0xd22 <ModelCalculateOutChannelsData+0xba>
     d20:	47 c0       	rjmp	.+142    	; 0xdb0 <ModelCalculateOutChannelsData+0x148>
     d22:	82 30       	cpi	r24, 0x02	; 2
     d24:	09 f4       	brne	.+2      	; 0xd28 <ModelCalculateOutChannelsData+0xc0>
     d26:	73 c0       	rjmp	.+230    	; 0xe0e <ModelCalculateOutChannelsData+0x1a6>
     d28:	c1 c0       	rjmp	.+386    	; 0xeac <ModelCalculateOutChannelsData+0x244>
     d2a:	80 91 30 04 	lds	r24, 0x0430
     d2e:	81 11       	cpse	r24, r1
     d30:	0c c0       	rjmp	.+24     	; 0xd4a <ModelCalculateOutChannelsData+0xe2>
     d32:	c4 d1       	rcall	.+904    	; 0x10bc <getStickValue>
     d34:	20 91 32 04 	lds	r18, 0x0432
     d38:	12 9f       	mul	r17, r18
     d3a:	90 01       	movw	r18, r0
     d3c:	11 24       	eor	r1, r1
     d3e:	bc 01       	movw	r22, r24
     d40:	c9 01       	movw	r24, r18
     d42:	8a 51       	subi	r24, 0x1A	; 26
     d44:	9c 4f       	sbci	r25, 0xFC	; 252
     d46:	8c dc       	rcall	.-1768   	; 0x660 <curveXpoint>
     d48:	02 c0       	rjmp	.+4      	; 0xd4e <ModelCalculateOutChannelsData+0xe6>
     d4a:	80 e3       	ldi	r24, 0x30	; 48
     d4c:	98 ef       	ldi	r25, 0xF8	; 248
     d4e:	90 93 34 04 	sts	0x0434, r25
     d52:	80 93 33 04 	sts	0x0433, r24
     d56:	89 81       	ldd	r24, Y+1	; 0x01
     d58:	9a 81       	ldd	r25, Y+2	; 0x02
     d5a:	90 93 36 04 	sts	0x0436, r25
     d5e:	80 93 35 04 	sts	0x0435, r24
     d62:	8b 81       	ldd	r24, Y+3	; 0x03
     d64:	9c 81       	ldd	r25, Y+4	; 0x04
     d66:	90 93 38 04 	sts	0x0438, r25
     d6a:	80 93 37 04 	sts	0x0437, r24
     d6e:	8d 81       	ldd	r24, Y+5	; 0x05
     d70:	9e 81       	ldd	r25, Y+6	; 0x06
     d72:	90 93 3a 04 	sts	0x043A, r25
     d76:	80 93 39 04 	sts	0x0439, r24
     d7a:	e0 91 32 04 	lds	r30, 0x0432
     d7e:	f0 e0       	ldi	r31, 0x00	; 0
     d80:	ee 0f       	add	r30, r30
     d82:	ff 1f       	adc	r31, r31
     d84:	e2 54       	subi	r30, 0x42	; 66
     d86:	fc 4f       	sbci	r31, 0xFC	; 252
     d88:	80 81       	ld	r24, Z
     d8a:	91 81       	ldd	r25, Z+1	; 0x01
     d8c:	90 93 3c 04 	sts	0x043C, r25
     d90:	80 93 3b 04 	sts	0x043B, r24
     d94:	80 e0       	ldi	r24, 0x00	; 0
     d96:	92 d1       	rcall	.+804    	; 0x10bc <getStickValue>
     d98:	20 91 32 04 	lds	r18, 0x0432
     d9c:	46 e0       	ldi	r20, 0x06	; 6
     d9e:	24 9f       	mul	r18, r20
     da0:	90 01       	movw	r18, r0
     da2:	11 24       	eor	r1, r1
     da4:	bc 01       	movw	r22, r24
     da6:	c9 01       	movw	r24, r18
     da8:	86 52       	subi	r24, 0x26	; 38
     daa:	9c 4f       	sbci	r25, 0xFC	; 252
     dac:	59 dc       	rcall	.-1870   	; 0x660 <curveXpoint>
     dae:	7a c0       	rjmp	.+244    	; 0xea4 <ModelCalculateOutChannelsData+0x23c>
     db0:	80 e0       	ldi	r24, 0x00	; 0
     db2:	84 d1       	rcall	.+776    	; 0x10bc <getStickValue>
     db4:	90 93 34 04 	sts	0x0434, r25
     db8:	80 93 33 04 	sts	0x0433, r24
     dbc:	89 81       	ldd	r24, Y+1	; 0x01
     dbe:	9a 81       	ldd	r25, Y+2	; 0x02
     dc0:	90 93 36 04 	sts	0x0436, r25
     dc4:	80 93 35 04 	sts	0x0435, r24
     dc8:	8b 81       	ldd	r24, Y+3	; 0x03
     dca:	9c 81       	ldd	r25, Y+4	; 0x04
     dcc:	90 93 38 04 	sts	0x0438, r25
     dd0:	80 93 37 04 	sts	0x0437, r24
     dd4:	8d 81       	ldd	r24, Y+5	; 0x05
     dd6:	9e 81       	ldd	r25, Y+6	; 0x06
     dd8:	90 93 3a 04 	sts	0x043A, r25
     ddc:	80 93 39 04 	sts	0x0439, r24
     de0:	e0 91 32 04 	lds	r30, 0x0432
     de4:	f0 e0       	ldi	r31, 0x00	; 0
     de6:	ee 0f       	add	r30, r30
     de8:	ff 1f       	adc	r31, r31
     dea:	e2 54       	subi	r30, 0x42	; 66
     dec:	fc 4f       	sbci	r31, 0xFC	; 252
     dee:	80 81       	ld	r24, Z
     df0:	91 81       	ldd	r25, Z+1	; 0x01
     df2:	90 93 3c 04 	sts	0x043C, r25
     df6:	80 93 3b 04 	sts	0x043B, r24
     dfa:	80 91 31 04 	lds	r24, 0x0431
     dfe:	81 11       	cpse	r24, r1
     e00:	03 c0       	rjmp	.+6      	; 0xe08 <ModelCalculateOutChannelsData+0x1a0>
     e02:	80 ec       	ldi	r24, 0xC0	; 192
     e04:	99 ef       	ldi	r25, 0xF9	; 249
     e06:	4e c0       	rjmp	.+156    	; 0xea4 <ModelCalculateOutChannelsData+0x23c>
     e08:	80 e4       	ldi	r24, 0x40	; 64
     e0a:	96 e0       	ldi	r25, 0x06	; 6
     e0c:	4b c0       	rjmp	.+150    	; 0xea4 <ModelCalculateOutChannelsData+0x23c>
     e0e:	80 e0       	ldi	r24, 0x00	; 0
     e10:	55 d1       	rcall	.+682    	; 0x10bc <getStickValue>
     e12:	90 93 34 04 	sts	0x0434, r25
     e16:	80 93 33 04 	sts	0x0433, r24
     e1a:	60 91 32 04 	lds	r22, 0x0432
     e1e:	16 9f       	mul	r17, r22
     e20:	b0 01       	movw	r22, r0
     e22:	11 24       	eor	r1, r1
     e24:	66 52       	subi	r22, 0x26	; 38
     e26:	7c 4f       	sbci	r23, 0xFC	; 252
     e28:	ce 01       	movw	r24, r28
     e2a:	01 96       	adiw	r24, 0x01	; 1
     e2c:	35 dc       	rcall	.-1942   	; 0x698 <mix>
     e2e:	90 93 36 04 	sts	0x0436, r25
     e32:	80 93 35 04 	sts	0x0435, r24
     e36:	60 91 32 04 	lds	r22, 0x0432
     e3a:	16 9f       	mul	r17, r22
     e3c:	b0 01       	movw	r22, r0
     e3e:	11 24       	eor	r1, r1
     e40:	6a 51       	subi	r22, 0x1A	; 26
     e42:	7c 4f       	sbci	r23, 0xFC	; 252
     e44:	ce 01       	movw	r24, r28
     e46:	01 96       	adiw	r24, 0x01	; 1
     e48:	27 dc       	rcall	.-1970   	; 0x698 <mix>
     e4a:	90 93 38 04 	sts	0x0438, r25
     e4e:	80 93 37 04 	sts	0x0437, r24
     e52:	8d 81       	ldd	r24, Y+5	; 0x05
     e54:	9e 81       	ldd	r25, Y+6	; 0x06
     e56:	90 93 3a 04 	sts	0x043A, r25
     e5a:	80 93 39 04 	sts	0x0439, r24
     e5e:	80 91 30 04 	lds	r24, 0x0430
     e62:	81 11       	cpse	r24, r1
     e64:	03 c0       	rjmp	.+6      	; 0xe6c <ModelCalculateOutChannelsData+0x204>
     e66:	80 ec       	ldi	r24, 0xC0	; 192
     e68:	99 ef       	ldi	r25, 0xF9	; 249
     e6a:	02 c0       	rjmp	.+4      	; 0xe70 <ModelCalculateOutChannelsData+0x208>
     e6c:	80 e4       	ldi	r24, 0x40	; 64
     e6e:	96 e0       	ldi	r25, 0x06	; 6
     e70:	90 93 3c 04 	sts	0x043C, r25
     e74:	80 93 3b 04 	sts	0x043B, r24
     e78:	60 91 32 04 	lds	r22, 0x0432
     e7c:	86 e0       	ldi	r24, 0x06	; 6
     e7e:	68 9f       	mul	r22, r24
     e80:	b0 01       	movw	r22, r0
     e82:	11 24       	eor	r1, r1
     e84:	6e 50       	subi	r22, 0x0E	; 14
     e86:	7c 4f       	sbci	r23, 0xFC	; 252
     e88:	ce 01       	movw	r24, r28
     e8a:	01 96       	adiw	r24, 0x01	; 1
     e8c:	05 dc       	rcall	.-2038   	; 0x698 <mix>
     e8e:	e0 91 32 04 	lds	r30, 0x0432
     e92:	f0 e0       	ldi	r31, 0x00	; 0
     e94:	ee 0f       	add	r30, r30
     e96:	ff 1f       	adc	r31, r31
     e98:	e2 54       	subi	r30, 0x42	; 66
     e9a:	fc 4f       	sbci	r31, 0xFC	; 252
     e9c:	20 81       	ld	r18, Z
     e9e:	31 81       	ldd	r19, Z+1	; 0x01
     ea0:	82 0f       	add	r24, r18
     ea2:	93 1f       	adc	r25, r19
     ea4:	90 93 3e 04 	sts	0x043E, r25
     ea8:	80 93 3d 04 	sts	0x043D, r24
     eac:	26 96       	adiw	r28, 0x06	; 6
     eae:	0f b6       	in	r0, 0x3f	; 63
     eb0:	f8 94       	cli
     eb2:	de bf       	out	0x3e, r29	; 62
     eb4:	0f be       	out	0x3f, r0	; 63
     eb6:	cd bf       	out	0x3d, r28	; 61
     eb8:	df 91       	pop	r29
     eba:	cf 91       	pop	r28
     ebc:	1f 91       	pop	r17
     ebe:	08 95       	ret

00000ec0 <ModelGetCannel>:
     ec0:	0f 93       	push	r16
     ec2:	1f 93       	push	r17
     ec4:	88 0f       	add	r24, r24
     ec6:	99 0b       	sbc	r25, r25
     ec8:	fc 01       	movw	r30, r24
     eca:	ed 5c       	subi	r30, 0xCD	; 205
     ecc:	fb 4f       	sbci	r31, 0xFB	; 251
     ece:	00 81       	ld	r16, Z
     ed0:	11 81       	ldd	r17, Z+1	; 0x01
     ed2:	2f ef       	ldi	r18, 0xFF	; 255
     ed4:	33 e0       	ldi	r19, 0x03	; 3
     ed6:	40 e0       	ldi	r20, 0x00	; 0
     ed8:	50 e0       	ldi	r21, 0x00	; 0
     eda:	60 ed       	ldi	r22, 0xD0	; 208
     edc:	77 e0       	ldi	r23, 0x07	; 7
     ede:	80 e3       	ldi	r24, 0x30	; 48
     ee0:	98 ef       	ldi	r25, 0xF8	; 248
     ee2:	51 db       	rcall	.-2398   	; 0x586 <Scale>
     ee4:	1f 91       	pop	r17
     ee6:	0f 91       	pop	r16
     ee8:	08 95       	ret

00000eea <tx_SetChanelData>:
     eea:	66 30       	cpi	r22, 0x06	; 6
     eec:	98 f4       	brcc	.+38     	; 0xf14 <tx_SetChanelData+0x2a>
     eee:	81 15       	cp	r24, r1
     ef0:	24 e0       	ldi	r18, 0x04	; 4
     ef2:	92 07       	cpc	r25, r18
     ef4:	2c f4       	brge	.+10     	; 0xf00 <tx_SetChanelData+0x16>
     ef6:	97 ff       	sbrs	r25, 7
     ef8:	05 c0       	rjmp	.+10     	; 0xf04 <tx_SetChanelData+0x1a>
     efa:	80 e0       	ldi	r24, 0x00	; 0
     efc:	90 e0       	ldi	r25, 0x00	; 0
     efe:	02 c0       	rjmp	.+4      	; 0xf04 <tx_SetChanelData+0x1a>
     f00:	8f ef       	ldi	r24, 0xFF	; 255
     f02:	93 e0       	ldi	r25, 0x03	; 3
     f04:	e6 2f       	mov	r30, r22
     f06:	f0 e0       	ldi	r31, 0x00	; 0
     f08:	ee 0f       	add	r30, r30
     f0a:	ff 1f       	adc	r31, r31
     f0c:	e3 52       	subi	r30, 0x23	; 35
     f0e:	fd 4f       	sbci	r31, 0xFD	; 253
     f10:	91 83       	std	Z+1, r25	; 0x01
     f12:	80 83       	st	Z, r24
     f14:	08 95       	ret

00000f16 <tx_SetMode>:
     f16:	80 93 ea 02 	sts	0x02EA, r24
     f1a:	08 95       	ret

00000f1c <tx_SetModelNr>:
     f1c:	80 93 eb 02 	sts	0x02EB, r24
     f20:	08 95       	ret

00000f22 <tx_SetBindMode>:
     f22:	90 91 ea 02 	lds	r25, 0x02EA
     f26:	88 23       	and	r24, r24
     f28:	11 f0       	breq	.+4      	; 0xf2e <tx_SetBindMode+0xc>
     f2a:	90 68       	ori	r25, 0x80	; 128
     f2c:	01 c0       	rjmp	.+2      	; 0xf30 <tx_SetBindMode+0xe>
     f2e:	9f 77       	andi	r25, 0x7F	; 127
     f30:	90 93 ea 02 	sts	0x02EA, r25
     f34:	08 95       	ret

00000f36 <tx_SetRangeCheck>:
     f36:	90 91 ea 02 	lds	r25, 0x02EA
     f3a:	88 23       	and	r24, r24
     f3c:	11 f0       	breq	.+4      	; 0xf42 <tx_SetRangeCheck+0xc>
     f3e:	90 62       	ori	r25, 0x20	; 32
     f40:	01 c0       	rjmp	.+2      	; 0xf44 <tx_SetRangeCheck+0xe>
     f42:	9f 7d       	andi	r25, 0xDF	; 223
     f44:	90 93 ea 02 	sts	0x02EA, r25
     f48:	08 95       	ret

00000f4a <tx_ConvertChannelData>:
     f4a:	ad ed       	ldi	r26, 0xDD	; 221
     f4c:	b2 e0       	ldi	r27, 0x02	; 2
     f4e:	ec ee       	ldi	r30, 0xEC	; 236
     f50:	f2 e0       	ldi	r31, 0x02	; 2
     f52:	80 e0       	ldi	r24, 0x00	; 0
     f54:	90 e0       	ldi	r25, 0x00	; 0
     f56:	3c 91       	ld	r19, X
     f58:	11 96       	adiw	r26, 0x01	; 1
     f5a:	2c 91       	ld	r18, X
     f5c:	11 97       	sbiw	r26, 0x01	; 1
     f5e:	12 96       	adiw	r26, 0x02	; 2
     f60:	42 2f       	mov	r20, r18
     f62:	43 70       	andi	r20, 0x03	; 3
     f64:	31 83       	std	Z+1, r19	; 0x01
     f66:	9c 01       	movw	r18, r24
     f68:	22 0f       	add	r18, r18
     f6a:	33 1f       	adc	r19, r19
     f6c:	22 0f       	add	r18, r18
     f6e:	33 1f       	adc	r19, r19
     f70:	24 2b       	or	r18, r20
     f72:	20 83       	st	Z, r18
     f74:	01 96       	adiw	r24, 0x01	; 1
     f76:	32 96       	adiw	r30, 0x02	; 2
     f78:	86 30       	cpi	r24, 0x06	; 6
     f7a:	91 05       	cpc	r25, r1
     f7c:	61 f7       	brne	.-40     	; 0xf56 <tx_ConvertChannelData+0xc>
     f7e:	08 95       	ret

00000f80 <tx_Init>:
     f80:	10 92 e9 02 	sts	0x02E9, r1
     f84:	10 92 dc 02 	sts	0x02DC, r1
     f88:	81 e0       	ldi	r24, 0x01	; 1
     f8a:	90 e0       	ldi	r25, 0x00	; 0
     f8c:	90 93 c5 00 	sts	0x00C5, r25
     f90:	80 93 c4 00 	sts	0x00C4, r24
     f94:	88 e0       	ldi	r24, 0x08	; 8
     f96:	80 93 c1 00 	sts	0x00C1, r24
     f9a:	86 e0       	ldi	r24, 0x06	; 6
     f9c:	80 93 c2 00 	sts	0x00C2, r24
     fa0:	ed ed       	ldi	r30, 0xDD	; 221
     fa2:	f2 e0       	ldi	r31, 0x02	; 2
     fa4:	80 e0       	ldi	r24, 0x00	; 0
     fa6:	92 e0       	ldi	r25, 0x02	; 2
     fa8:	91 83       	std	Z+1, r25	; 0x01
     faa:	80 83       	st	Z, r24
     fac:	93 83       	std	Z+3, r25	; 0x03
     fae:	82 83       	std	Z+2, r24	; 0x02
     fb0:	95 83       	std	Z+5, r25	; 0x05
     fb2:	84 83       	std	Z+4, r24	; 0x04
     fb4:	97 83       	std	Z+7, r25	; 0x07
     fb6:	86 83       	std	Z+6, r24	; 0x06
     fb8:	91 87       	std	Z+9, r25	; 0x09
     fba:	80 87       	std	Z+8, r24	; 0x08
     fbc:	93 87       	std	Z+11, r25	; 0x0b
     fbe:	82 87       	std	Z+10, r24	; 0x0a
     fc0:	ea ee       	ldi	r30, 0xEA	; 234
     fc2:	f2 e0       	ldi	r31, 0x02	; 2
     fc4:	80 91 b7 03 	lds	r24, 0x03B7
     fc8:	80 83       	st	Z, r24
     fca:	80 91 98 03 	lds	r24, 0x0398
     fce:	81 83       	std	Z+1, r24	; 0x01
     fd0:	bc cf       	rjmp	.-136    	; 0xf4a <tx_ConvertChannelData>

00000fd2 <__vector_19>:
     fd2:	1f 92       	push	r1
     fd4:	0f 92       	push	r0
     fd6:	0f b6       	in	r0, 0x3f	; 63
     fd8:	0f 92       	push	r0
     fda:	11 24       	eor	r1, r1
     fdc:	8f 93       	push	r24
     fde:	ef 93       	push	r30
     fe0:	ff 93       	push	r31
     fe2:	80 91 c0 00 	lds	r24, 0x00C0
     fe6:	e0 91 e9 02 	lds	r30, 0x02E9
     fea:	85 ff       	sbrs	r24, 5
     fec:	0d c0       	rjmp	.+26     	; 0x1008 <__vector_19+0x36>
     fee:	ee 23       	and	r30, r30
     ff0:	91 f0       	breq	.+36     	; 0x1016 <__vector_19+0x44>
     ff2:	81 e0       	ldi	r24, 0x01	; 1
     ff4:	8e 0f       	add	r24, r30
     ff6:	80 93 e9 02 	sts	0x02E9, r24
     ffa:	f0 e0       	ldi	r31, 0x00	; 0
     ffc:	e6 51       	subi	r30, 0x16	; 22
     ffe:	fd 4f       	sbci	r31, 0xFD	; 253
    1000:	80 81       	ld	r24, Z
    1002:	80 93 c6 00 	sts	0x00C6, r24
    1006:	ed cf       	rjmp	.-38     	; 0xfe2 <__vector_19+0x10>
    1008:	ee 30       	cpi	r30, 0x0E	; 14
    100a:	29 f4       	brne	.+10     	; 0x1016 <__vector_19+0x44>
    100c:	80 91 c1 00 	lds	r24, 0x00C1
    1010:	8f 7d       	andi	r24, 0xDF	; 223
    1012:	80 93 c1 00 	sts	0x00C1, r24
    1016:	ff 91       	pop	r31
    1018:	ef 91       	pop	r30
    101a:	8f 91       	pop	r24
    101c:	0f 90       	pop	r0
    101e:	0f be       	out	0x3f, r0	; 63
    1020:	0f 90       	pop	r0
    1022:	1f 90       	pop	r1
    1024:	18 95       	reti

00001026 <SendTX_Buf>:
    1026:	81 e0       	ldi	r24, 0x01	; 1
    1028:	80 93 e9 02 	sts	0x02E9, r24
    102c:	80 91 ea 02 	lds	r24, 0x02EA
    1030:	80 93 c6 00 	sts	0x00C6, r24
    1034:	80 91 c0 00 	lds	r24, 0x00C0
    1038:	85 ff       	sbrs	r24, 5
    103a:	0e c0       	rjmp	.+28     	; 0x1058 <SendTX_Buf+0x32>
    103c:	e0 91 e9 02 	lds	r30, 0x02E9
    1040:	ee 23       	and	r30, r30
    1042:	51 f0       	breq	.+20     	; 0x1058 <SendTX_Buf+0x32>
    1044:	81 e0       	ldi	r24, 0x01	; 1
    1046:	8e 0f       	add	r24, r30
    1048:	80 93 e9 02 	sts	0x02E9, r24
    104c:	f0 e0       	ldi	r31, 0x00	; 0
    104e:	e6 51       	subi	r30, 0x16	; 22
    1050:	fd 4f       	sbci	r31, 0xFD	; 253
    1052:	80 81       	ld	r24, Z
    1054:	80 93 c6 00 	sts	0x00C6, r24
    1058:	80 91 c1 00 	lds	r24, 0x00C1
    105c:	80 62       	ori	r24, 0x20	; 32
    105e:	80 93 c1 00 	sts	0x00C1, r24
    1062:	08 95       	ret

00001064 <tx_Send>:
    1064:	72 df       	rcall	.-284    	; 0xf4a <tx_ConvertChannelData>
    1066:	81 e0       	ldi	r24, 0x01	; 1
    1068:	80 93 dc 02 	sts	0x02DC, r24
    106c:	08 95       	ret

0000106e <getRawStickValue>:
    106e:	cf 93       	push	r28
    1070:	20 91 97 03 	lds	r18, 0x0397
    1074:	94 e0       	ldi	r25, 0x04	; 4
    1076:	29 9f       	mul	r18, r25
    1078:	90 01       	movw	r18, r0
    107a:	11 24       	eor	r1, r1
    107c:	28 0f       	add	r18, r24
    107e:	31 1d       	adc	r19, r1
    1080:	f9 01       	movw	r30, r18
    1082:	e0 59       	subi	r30, 0x90	; 144
    1084:	fd 4f       	sbci	r31, 0xFD	; 253
    1086:	c0 81       	ld	r28, Z
    1088:	8c 2f       	mov	r24, r28
    108a:	2a d8       	rcall	.-4012   	; 0xe0 <AdcGetChanel>
    108c:	ac 01       	movw	r20, r24
    108e:	86 e0       	ldi	r24, 0x06	; 6
    1090:	c8 9f       	mul	r28, r24
    1092:	f0 01       	movw	r30, r0
    1094:	11 24       	eor	r1, r1
    1096:	ed 56       	subi	r30, 0x6D	; 109
    1098:	fc 4f       	sbci	r31, 0xFC	; 252
    109a:	81 85       	ldd	r24, Z+9	; 0x09
    109c:	92 85       	ldd	r25, Z+10	; 0x0a
    109e:	84 17       	cp	r24, r20
    10a0:	95 07       	cpc	r25, r21
    10a2:	44 f0       	brlt	.+16     	; 0x10b4 <getRawStickValue+0x46>
    10a4:	bc 01       	movw	r22, r24
    10a6:	87 81       	ldd	r24, Z+7	; 0x07
    10a8:	90 85       	ldd	r25, Z+8	; 0x08
    10aa:	c1 da       	rcall	.-2686   	; 0x62e <ScaleHalf>
    10ac:	80 5d       	subi	r24, 0xD0	; 208
    10ae:	97 40       	sbci	r25, 0x07	; 7
    10b0:	cf 91       	pop	r28
    10b2:	08 95       	ret
    10b4:	63 85       	ldd	r22, Z+11	; 0x0b
    10b6:	74 85       	ldd	r23, Z+12	; 0x0c
    10b8:	cf 91       	pop	r28
    10ba:	b9 ca       	rjmp	.-2702   	; 0x62e <ScaleHalf>

000010bc <getStickValue>:
    10bc:	cf 93       	push	r28
    10be:	e0 91 97 03 	lds	r30, 0x0397
    10c2:	24 e0       	ldi	r18, 0x04	; 4
    10c4:	e2 9f       	mul	r30, r18
    10c6:	f0 01       	movw	r30, r0
    10c8:	11 24       	eor	r1, r1
    10ca:	e8 0f       	add	r30, r24
    10cc:	f1 1d       	adc	r31, r1
    10ce:	e0 59       	subi	r30, 0x90	; 144
    10d0:	fd 4f       	sbci	r31, 0xFD	; 253
    10d2:	c0 81       	ld	r28, Z
    10d4:	cc df       	rcall	.-104    	; 0x106e <getRawStickValue>
    10d6:	ac 01       	movw	r20, r24
    10d8:	ec 2f       	mov	r30, r28
    10da:	f0 e0       	ldi	r31, 0x00	; 0
    10dc:	ee 54       	subi	r30, 0x4E	; 78
    10de:	fc 4f       	sbci	r31, 0xFC	; 252
    10e0:	97 81       	ldd	r25, Z+7	; 0x07
    10e2:	2c ee       	ldi	r18, 0xEC	; 236
    10e4:	92 02       	muls	r25, r18
    10e6:	c0 01       	movw	r24, r0
    10e8:	11 24       	eor	r1, r1
    10ea:	84 17       	cp	r24, r20
    10ec:	95 07       	cpc	r25, r21
    10ee:	3c f0       	brlt	.+14     	; 0x10fe <getStickValue+0x42>
    10f0:	bc 01       	movw	r22, r24
    10f2:	80 e3       	ldi	r24, 0x30	; 48
    10f4:	98 ef       	ldi	r25, 0xF8	; 248
    10f6:	9b da       	rcall	.-2762   	; 0x62e <ScaleHalf>
    10f8:	80 5d       	subi	r24, 0xD0	; 208
    10fa:	97 40       	sbci	r25, 0x07	; 7
    10fc:	03 c0       	rjmp	.+6      	; 0x1104 <getStickValue+0x48>
    10fe:	60 ed       	ldi	r22, 0xD0	; 208
    1100:	77 e0       	ldi	r23, 0x07	; 7
    1102:	95 da       	rcall	.-2774   	; 0x62e <ScaleHalf>
    1104:	c8 30       	cpi	r28, 0x08	; 8
    1106:	68 f4       	brcc	.+26     	; 0x1122 <getStickValue+0x66>
    1108:	20 91 99 03 	lds	r18, 0x0399
    110c:	30 e0       	ldi	r19, 0x00	; 0
    110e:	02 c0       	rjmp	.+4      	; 0x1114 <getStickValue+0x58>
    1110:	35 95       	asr	r19
    1112:	27 95       	ror	r18
    1114:	ca 95       	dec	r28
    1116:	e2 f7       	brpl	.-8      	; 0x1110 <getStickValue+0x54>
    1118:	20 ff       	sbrs	r18, 0
    111a:	03 c0       	rjmp	.+6      	; 0x1122 <getStickValue+0x66>
    111c:	91 95       	neg	r25
    111e:	81 95       	neg	r24
    1120:	91 09       	sbc	r25, r1
    1122:	cf 91       	pop	r28
    1124:	08 95       	ret

00001126 <StickTrimUp>:
    1126:	cf 93       	push	r28
    1128:	df 93       	push	r29
    112a:	c8 2f       	mov	r28, r24
    112c:	d0 e0       	ldi	r29, 0x00	; 0
    112e:	ce 54       	subi	r28, 0x4E	; 78
    1130:	dc 4f       	sbci	r29, 0xFC	; 252
    1132:	8f 81       	ldd	r24, Y+7	; 0x07
    1134:	8f 5f       	subi	r24, 0xFF	; 255
    1136:	8f 83       	std	Y+7, r24	; 0x07
    1138:	98 2f       	mov	r25, r24
    113a:	99 0f       	add	r25, r25
    113c:	90 55       	subi	r25, 0x50	; 80
    113e:	90 93 09 01 	sts	0x0109, r25
    1142:	8f 31       	cpi	r24, 0x1F	; 31
    1144:	34 f0       	brlt	.+12     	; 0x1152 <StickTrimUp+0x2c>
    1146:	8e e1       	ldi	r24, 0x1E	; 30
    1148:	8f 83       	std	Y+7, r24	; 0x07
    114a:	68 e0       	ldi	r22, 0x08	; 8
    114c:	71 e0       	ldi	r23, 0x01	; 1
    114e:	82 e0       	ldi	r24, 0x02	; 2
    1150:	c1 d8       	rcall	.-3710   	; 0x2d4 <buz_PlayMelody>
    1152:	8f 81       	ldd	r24, Y+7	; 0x07
    1154:	81 11       	cpse	r24, r1
    1156:	05 c0       	rjmp	.+10     	; 0x1162 <StickTrimUp+0x3c>
    1158:	60 e0       	ldi	r22, 0x00	; 0
    115a:	71 e0       	ldi	r23, 0x01	; 1
    115c:	82 e0       	ldi	r24, 0x02	; 2
    115e:	ba d8       	rcall	.-3724   	; 0x2d4 <buz_PlayMelody>
    1160:	09 c0       	rjmp	.+18     	; 0x1174 <StickTrimUp+0x4e>
    1162:	60 91 08 01 	lds	r22, 0x0108
    1166:	70 91 09 01 	lds	r23, 0x0109
    116a:	80 91 0a 01 	lds	r24, 0x010A
    116e:	90 91 0b 01 	lds	r25, 0x010B
    1172:	9b d8       	rcall	.-3786   	; 0x2aa <buz_PlayNote>
    1174:	df 91       	pop	r29
    1176:	cf 91       	pop	r28
    1178:	0b c9       	rjmp	.-3562   	; 0x390 <ConfigSaveTrim>

0000117a <StickTrimDown>:
    117a:	cf 93       	push	r28
    117c:	df 93       	push	r29
    117e:	c8 2f       	mov	r28, r24
    1180:	d0 e0       	ldi	r29, 0x00	; 0
    1182:	ce 54       	subi	r28, 0x4E	; 78
    1184:	dc 4f       	sbci	r29, 0xFC	; 252
    1186:	8f 81       	ldd	r24, Y+7	; 0x07
    1188:	81 50       	subi	r24, 0x01	; 1
    118a:	8f 83       	std	Y+7, r24	; 0x07
    118c:	98 2f       	mov	r25, r24
    118e:	99 0f       	add	r25, r25
    1190:	90 55       	subi	r25, 0x50	; 80
    1192:	90 93 09 01 	sts	0x0109, r25
    1196:	82 3e       	cpi	r24, 0xE2	; 226
    1198:	34 f4       	brge	.+12     	; 0x11a6 <StickTrimDown+0x2c>
    119a:	82 ee       	ldi	r24, 0xE2	; 226
    119c:	8f 83       	std	Y+7, r24	; 0x07
    119e:	68 e0       	ldi	r22, 0x08	; 8
    11a0:	71 e0       	ldi	r23, 0x01	; 1
    11a2:	82 e0       	ldi	r24, 0x02	; 2
    11a4:	97 d8       	rcall	.-3794   	; 0x2d4 <buz_PlayMelody>
    11a6:	8f 81       	ldd	r24, Y+7	; 0x07
    11a8:	81 11       	cpse	r24, r1
    11aa:	05 c0       	rjmp	.+10     	; 0x11b6 <StickTrimDown+0x3c>
    11ac:	60 e0       	ldi	r22, 0x00	; 0
    11ae:	71 e0       	ldi	r23, 0x01	; 1
    11b0:	82 e0       	ldi	r24, 0x02	; 2
    11b2:	90 d8       	rcall	.-3808   	; 0x2d4 <buz_PlayMelody>
    11b4:	09 c0       	rjmp	.+18     	; 0x11c8 <StickTrimDown+0x4e>
    11b6:	60 91 08 01 	lds	r22, 0x0108
    11ba:	70 91 09 01 	lds	r23, 0x0109
    11be:	80 91 0a 01 	lds	r24, 0x010A
    11c2:	90 91 0b 01 	lds	r25, 0x010B
    11c6:	71 d8       	rcall	.-3870   	; 0x2aa <buz_PlayNote>
    11c8:	df 91       	pop	r29
    11ca:	cf 91       	pop	r28
    11cc:	e1 c8       	rjmp	.-3646   	; 0x390 <ConfigSaveTrim>

000011ce <initTimer>:
    11ce:	10 92 41 04 	sts	0x0441, r1
    11d2:	10 92 42 04 	sts	0x0442, r1
    11d6:	10 92 43 04 	sts	0x0443, r1
    11da:	10 92 44 04 	sts	0x0444, r1
    11de:	10 92 40 04 	sts	0x0440, r1
    11e2:	10 92 3f 04 	sts	0x043F, r1
    11e6:	81 e0       	ldi	r24, 0x01	; 1
    11e8:	80 93 81 00 	sts	0x0081, r24
    11ec:	10 92 80 00 	sts	0x0080, r1
    11f0:	8c ee       	ldi	r24, 0xEC	; 236
    11f2:	9a e0       	ldi	r25, 0x0A	; 10
    11f4:	90 93 8b 00 	sts	0x008B, r25
    11f8:	80 93 8a 00 	sts	0x008A, r24
    11fc:	82 e6       	ldi	r24, 0x62	; 98
    11fe:	90 e1       	ldi	r25, 0x10	; 16
    1200:	90 93 89 00 	sts	0x0089, r25
    1204:	80 93 88 00 	sts	0x0088, r24
    1208:	86 e0       	ldi	r24, 0x06	; 6
    120a:	80 93 6f 00 	sts	0x006F, r24
    120e:	08 95       	ret

00001210 <__vector_12>:
    1210:	1f 92       	push	r1
    1212:	0f 92       	push	r0
    1214:	0f b6       	in	r0, 0x3f	; 63
    1216:	0f 92       	push	r0
    1218:	11 24       	eor	r1, r1
    121a:	2f 93       	push	r18
    121c:	3f 93       	push	r19
    121e:	4f 93       	push	r20
    1220:	5f 93       	push	r21
    1222:	6f 93       	push	r22
    1224:	7f 93       	push	r23
    1226:	8f 93       	push	r24
    1228:	9f 93       	push	r25
    122a:	af 93       	push	r26
    122c:	bf 93       	push	r27
    122e:	ef 93       	push	r30
    1230:	ff 93       	push	r31
    1232:	80 91 8a 00 	lds	r24, 0x008A
    1236:	90 91 8b 00 	lds	r25, 0x008B
    123a:	84 51       	subi	r24, 0x14	; 20
    123c:	95 4f       	sbci	r25, 0xF5	; 245
    123e:	90 93 8b 00 	sts	0x008B, r25
    1242:	80 93 8a 00 	sts	0x008A, r24
    1246:	40 d7       	rcall	.+3712   	; 0x20c8 <__data_load_end+0x218>
    1248:	88 23       	and	r24, r24
    124a:	21 f0       	breq	.+8      	; 0x1254 <__vector_12+0x44>
    124c:	80 91 dc 02 	lds	r24, 0x02DC
    1250:	81 11       	cpse	r24, r1
    1252:	e9 de       	rcall	.-558    	; 0x1026 <SendTX_Buf>
    1254:	7c da       	rcall	.-2824   	; 0x74e <key_cyclic>
    1256:	ff 91       	pop	r31
    1258:	ef 91       	pop	r30
    125a:	bf 91       	pop	r27
    125c:	af 91       	pop	r26
    125e:	9f 91       	pop	r25
    1260:	8f 91       	pop	r24
    1262:	7f 91       	pop	r23
    1264:	6f 91       	pop	r22
    1266:	5f 91       	pop	r21
    1268:	4f 91       	pop	r20
    126a:	3f 91       	pop	r19
    126c:	2f 91       	pop	r18
    126e:	0f 90       	pop	r0
    1270:	0f be       	out	0x3f, r0	; 63
    1272:	0f 90       	pop	r0
    1274:	1f 90       	pop	r1
    1276:	18 95       	reti

00001278 <__vector_11>:
    1278:	1f 92       	push	r1
    127a:	0f 92       	push	r0
    127c:	0f b6       	in	r0, 0x3f	; 63
    127e:	0f 92       	push	r0
    1280:	11 24       	eor	r1, r1
    1282:	2f 93       	push	r18
    1284:	3f 93       	push	r19
    1286:	4f 93       	push	r20
    1288:	5f 93       	push	r21
    128a:	6f 93       	push	r22
    128c:	7f 93       	push	r23
    128e:	8f 93       	push	r24
    1290:	9f 93       	push	r25
    1292:	af 93       	push	r26
    1294:	bf 93       	push	r27
    1296:	ef 93       	push	r30
    1298:	ff 93       	push	r31
    129a:	80 91 41 04 	lds	r24, 0x0441
    129e:	90 91 42 04 	lds	r25, 0x0442
    12a2:	a0 91 43 04 	lds	r26, 0x0443
    12a6:	b0 91 44 04 	lds	r27, 0x0444
    12aa:	01 96       	adiw	r24, 0x01	; 1
    12ac:	a1 1d       	adc	r26, r1
    12ae:	b1 1d       	adc	r27, r1
    12b0:	80 93 41 04 	sts	0x0441, r24
    12b4:	90 93 42 04 	sts	0x0442, r25
    12b8:	a0 93 43 04 	sts	0x0443, r26
    12bc:	b0 93 44 04 	sts	0x0444, r27
    12c0:	80 91 3f 04 	lds	r24, 0x043F
    12c4:	90 91 40 04 	lds	r25, 0x0440
    12c8:	80 5d       	subi	r24, 0xD0	; 208
    12ca:	9e 4f       	sbci	r25, 0xFE	; 254
    12cc:	90 93 40 04 	sts	0x0440, r25
    12d0:	80 93 3f 04 	sts	0x043F, r24
    12d4:	88 3e       	cpi	r24, 0xE8	; 232
    12d6:	93 40       	sbci	r25, 0x03	; 3
    12d8:	ac f0       	brlt	.+42     	; 0x1304 <__vector_11+0x8c>
    12da:	80 91 88 00 	lds	r24, 0x0088
    12de:	90 91 89 00 	lds	r25, 0x0089
    12e2:	8f 59       	subi	r24, 0x9F	; 159
    12e4:	9f 4e       	sbci	r25, 0xEF	; 239
    12e6:	90 93 89 00 	sts	0x0089, r25
    12ea:	80 93 88 00 	sts	0x0088, r24
    12ee:	80 91 3f 04 	lds	r24, 0x043F
    12f2:	90 91 40 04 	lds	r25, 0x0440
    12f6:	88 5e       	subi	r24, 0xE8	; 232
    12f8:	93 40       	sbci	r25, 0x03	; 3
    12fa:	90 93 40 04 	sts	0x0440, r25
    12fe:	80 93 3f 04 	sts	0x043F, r24
    1302:	0a c0       	rjmp	.+20     	; 0x1318 <__vector_11+0xa0>
    1304:	80 91 88 00 	lds	r24, 0x0088
    1308:	90 91 89 00 	lds	r25, 0x0089
    130c:	8e 59       	subi	r24, 0x9E	; 158
    130e:	9f 4e       	sbci	r25, 0xEF	; 239
    1310:	90 93 89 00 	sts	0x0089, r25
    1314:	80 93 88 00 	sts	0x0088, r24
    1318:	f4 d7       	rcall	.+4072   	; 0x2302 <__data_load_end+0x452>
    131a:	ea da       	rcall	.-2604   	; 0x8f0 <LedCyclic>
    131c:	ff 91       	pop	r31
    131e:	ef 91       	pop	r30
    1320:	bf 91       	pop	r27
    1322:	af 91       	pop	r26
    1324:	9f 91       	pop	r25
    1326:	8f 91       	pop	r24
    1328:	7f 91       	pop	r23
    132a:	6f 91       	pop	r22
    132c:	5f 91       	pop	r21
    132e:	4f 91       	pop	r20
    1330:	3f 91       	pop	r19
    1332:	2f 91       	pop	r18
    1334:	0f 90       	pop	r0
    1336:	0f be       	out	0x3f, r0	; 63
    1338:	0f 90       	pop	r0
    133a:	1f 90       	pop	r1
    133c:	18 95       	reti

0000133e <UI_init>:
    133e:	10 92 f9 02 	sts	0x02F9, r1
    1342:	10 92 f8 02 	sts	0x02F8, r1
    1346:	08 95       	ret

00001348 <UI_CheckR_Stick_ModelSelect>:
    1348:	80 91 45 04 	lds	r24, 0x0445
    134c:	84 31       	cpi	r24, 0x14	; 20
    134e:	59 f0       	breq	.+22     	; 0x1366 <UI_CheckR_Stick_ModelSelect+0x1e>
    1350:	20 f4       	brcc	.+8      	; 0x135a <UI_CheckR_Stick_ModelSelect+0x12>
    1352:	81 31       	cpi	r24, 0x11	; 17
    1354:	81 f4       	brne	.+32     	; 0x1376 <UI_CheckR_Stick_ModelSelect+0x2e>
    1356:	82 e0       	ldi	r24, 0x02	; 2
    1358:	09 c0       	rjmp	.+18     	; 0x136c <UI_CheckR_Stick_ModelSelect+0x24>
    135a:	81 34       	cpi	r24, 0x41	; 65
    135c:	31 f0       	breq	.+12     	; 0x136a <UI_CheckR_Stick_ModelSelect+0x22>
    135e:	84 34       	cpi	r24, 0x44	; 68
    1360:	51 f4       	brne	.+20     	; 0x1376 <UI_CheckR_Stick_ModelSelect+0x2e>
    1362:	80 e0       	ldi	r24, 0x00	; 0
    1364:	03 c0       	rjmp	.+6      	; 0x136c <UI_CheckR_Stick_ModelSelect+0x24>
    1366:	81 e0       	ldi	r24, 0x01	; 1
    1368:	01 c0       	rjmp	.+2      	; 0x136c <UI_CheckR_Stick_ModelSelect+0x24>
    136a:	83 e0       	ldi	r24, 0x03	; 3
    136c:	4f d8       	rcall	.-3938   	; 0x40c <configSet_ModelNr>
    136e:	81 e0       	ldi	r24, 0x01	; 1
    1370:	80 93 f9 02 	sts	0x02F9, r24
    1374:	08 95       	ret
    1376:	80 e0       	ldi	r24, 0x00	; 0
    1378:	08 95       	ret

0000137a <UI_CheckOptionConfig>:
    137a:	af 92       	push	r10
    137c:	bf 92       	push	r11
    137e:	cf 92       	push	r12
    1380:	df 92       	push	r13
    1382:	ef 92       	push	r14
    1384:	ff 92       	push	r15
    1386:	0f 93       	push	r16
    1388:	1f 93       	push	r17
    138a:	cf 93       	push	r28
    138c:	df 93       	push	r29
    138e:	80 91 45 04 	lds	r24, 0x0445
    1392:	81 32       	cpi	r24, 0x21	; 33
    1394:	09 f4       	brne	.+2      	; 0x1398 <UI_CheckOptionConfig+0x1e>
    1396:	78 c0       	rjmp	.+240    	; 0x1488 <UI_CheckOptionConfig+0x10e>
    1398:	48 f4       	brcc	.+18     	; 0x13ac <UI_CheckOptionConfig+0x32>
    139a:	82 31       	cpi	r24, 0x12	; 18
    139c:	49 f1       	breq	.+82     	; 0x13f0 <UI_CheckOptionConfig+0x76>
    139e:	84 31       	cpi	r24, 0x14	; 20
    13a0:	f1 f0       	breq	.+60     	; 0x13de <UI_CheckOptionConfig+0x64>
    13a2:	81 31       	cpi	r24, 0x11	; 17
    13a4:	09 f0       	breq	.+2      	; 0x13a8 <UI_CheckOptionConfig+0x2e>
    13a6:	76 c0       	rjmp	.+236    	; 0x1494 <UI_CheckOptionConfig+0x11a>
    13a8:	80 e0       	ldi	r24, 0x00	; 0
    13aa:	6f c0       	rjmp	.+222    	; 0x148a <UI_CheckOptionConfig+0x110>
    13ac:	81 34       	cpi	r24, 0x41	; 65
    13ae:	09 f4       	brne	.+2      	; 0x13b2 <UI_CheckOptionConfig+0x38>
    13b0:	69 c0       	rjmp	.+210    	; 0x1484 <UI_CheckOptionConfig+0x10a>
    13b2:	70 f4       	brcc	.+28     	; 0x13d0 <UI_CheckOptionConfig+0x56>
    13b4:	84 32       	cpi	r24, 0x24	; 36
    13b6:	09 f0       	breq	.+2      	; 0x13ba <UI_CheckOptionConfig+0x40>
    13b8:	6d c0       	rjmp	.+218    	; 0x1494 <UI_CheckOptionConfig+0x11a>
    13ba:	6c ea       	ldi	r22, 0xAC	; 172
    13bc:	72 e0       	ldi	r23, 0x02	; 2
    13be:	83 e0       	ldi	r24, 0x03	; 3
    13c0:	89 d7       	rcall	.+3858   	; 0x22d4 <__data_load_end+0x424>
    13c2:	60 e8       	ldi	r22, 0x80	; 128
    13c4:	72 e0       	ldi	r23, 0x02	; 2
    13c6:	82 e0       	ldi	r24, 0x02	; 2
    13c8:	6b da       	rcall	.-2858   	; 0x8a0 <SetLedStateCyclicSequence>
    13ca:	d0 e0       	ldi	r29, 0x00	; 0
    13cc:	c0 e0       	ldi	r28, 0x00	; 0
    13ce:	53 c0       	rjmp	.+166    	; 0x1476 <UI_CheckOptionConfig+0xfc>
    13d0:	82 34       	cpi	r24, 0x42	; 66
    13d2:	61 f0       	breq	.+24     	; 0x13ec <UI_CheckOptionConfig+0x72>
    13d4:	84 34       	cpi	r24, 0x44	; 68
    13d6:	09 f0       	breq	.+2      	; 0x13da <UI_CheckOptionConfig+0x60>
    13d8:	5d c0       	rjmp	.+186    	; 0x1494 <UI_CheckOptionConfig+0x11a>
    13da:	61 e0       	ldi	r22, 0x01	; 1
    13dc:	01 c0       	rjmp	.+2      	; 0x13e0 <UI_CheckOptionConfig+0x66>
    13de:	60 e0       	ldi	r22, 0x00	; 0
    13e0:	84 e0       	ldi	r24, 0x04	; 4
    13e2:	e3 d7       	rcall	.+4038   	; 0x23aa <__data_load_end+0x4fa>
    13e4:	81 e0       	ldi	r24, 0x01	; 1
    13e6:	80 93 f9 02 	sts	0x02F9, r24
    13ea:	55 c0       	rjmp	.+170    	; 0x1496 <UI_CheckOptionConfig+0x11c>
    13ec:	61 e0       	ldi	r22, 0x01	; 1
    13ee:	01 c0       	rjmp	.+2      	; 0x13f2 <UI_CheckOptionConfig+0x78>
    13f0:	60 e0       	ldi	r22, 0x00	; 0
    13f2:	85 e0       	ldi	r24, 0x05	; 5
    13f4:	f6 cf       	rjmp	.-20     	; 0x13e2 <UI_CheckOptionConfig+0x68>
    13f6:	6c 01       	movw	r12, r24
    13f8:	ee 24       	eor	r14, r14
    13fa:	ff 24       	eor	r15, r15
    13fc:	8b 01       	movw	r16, r22
    13fe:	9c 01       	movw	r18, r24
    1400:	22 27       	eor	r18, r18
    1402:	33 27       	eor	r19, r19
    1404:	c0 26       	eor	r12, r16
    1406:	d1 26       	eor	r13, r17
    1408:	e2 26       	eor	r14, r18
    140a:	f3 26       	eor	r15, r19
    140c:	c6 22       	and	r12, r22
    140e:	d7 22       	and	r13, r23
    1410:	e8 22       	and	r14, r24
    1412:	f9 22       	and	r15, r25
    1414:	c4 fe       	sbrs	r12, 4
    1416:	20 c0       	rjmp	.+64     	; 0x1458 <UI_CheckOptionConfig+0xde>
    1418:	ac 2e       	mov	r10, r28
    141a:	aa 0c       	add	r10, r10
    141c:	bb 08       	sbc	r11, r11
    141e:	00 e0       	ldi	r16, 0x00	; 0
    1420:	10 e0       	ldi	r17, 0x00	; 0
    1422:	d0 e0       	ldi	r29, 0x00	; 0
    1424:	8d 2f       	mov	r24, r29
    1426:	5c d6       	rcall	.+3256   	; 0x20e0 <__data_load_end+0x230>
    1428:	f8 01       	movw	r30, r16
    142a:	ea 0d       	add	r30, r10
    142c:	fb 1d       	adc	r31, r11
    142e:	ed 56       	subi	r30, 0x6D	; 109
    1430:	fc 4f       	sbci	r31, 0xFC	; 252
    1432:	90 87       	std	Z+8, r25	; 0x08
    1434:	87 83       	std	Z+7, r24	; 0x07
    1436:	df 5f       	subi	r29, 0xFF	; 255
    1438:	0a 5f       	subi	r16, 0xFA	; 250
    143a:	1f 4f       	sbci	r17, 0xFF	; 255
    143c:	d4 30       	cpi	r29, 0x04	; 4
    143e:	91 f7       	brne	.-28     	; 0x1424 <UI_CheckOptionConfig+0xaa>
    1440:	cf 5f       	subi	r28, 0xFF	; 255
    1442:	8c 2f       	mov	r24, r28
    1444:	88 0f       	add	r24, r24
    1446:	60 e8       	ldi	r22, 0x80	; 128
    1448:	72 e0       	ldi	r23, 0x02	; 2
    144a:	8e 5f       	subi	r24, 0xFE	; 254
    144c:	29 da       	rcall	.-2990   	; 0x8a0 <SetLedStateCyclicSequence>
    144e:	60 ed       	ldi	r22, 0xD0	; 208
    1450:	72 e0       	ldi	r23, 0x02	; 2
    1452:	83 e0       	ldi	r24, 0x03	; 3
    1454:	3f d7       	rcall	.+3710   	; 0x22d4 <__data_load_end+0x424>
    1456:	d1 e0       	ldi	r29, 0x01	; 1
    1458:	d6 fe       	sbrs	r13, 6
    145a:	0b c0       	rjmp	.+22     	; 0x1472 <UI_CheckOptionConfig+0xf8>
    145c:	cf 5f       	subi	r28, 0xFF	; 255
    145e:	6c ea       	ldi	r22, 0xAC	; 172
    1460:	72 e0       	ldi	r23, 0x02	; 2
    1462:	83 e0       	ldi	r24, 0x03	; 3
    1464:	37 d7       	rcall	.+3694   	; 0x22d4 <__data_load_end+0x424>
    1466:	8c 2f       	mov	r24, r28
    1468:	88 0f       	add	r24, r24
    146a:	60 e8       	ldi	r22, 0x80	; 128
    146c:	72 e0       	ldi	r23, 0x02	; 2
    146e:	8e 5f       	subi	r24, 0xFE	; 254
    1470:	17 da       	rcall	.-3026   	; 0x8a0 <SetLedStateCyclicSequence>
    1472:	c3 30       	cpi	r28, 0x03	; 3
    1474:	1c f4       	brge	.+6      	; 0x147c <UI_CheckOptionConfig+0x102>
    1476:	c9 d9       	rcall	.-3182   	; 0x80a <Get_keys>
    1478:	63 fd       	sbrc	r22, 3
    147a:	bd cf       	rjmp	.-134    	; 0x13f6 <UI_CheckOptionConfig+0x7c>
    147c:	81 e0       	ldi	r24, 0x01	; 1
    147e:	dd 23       	and	r29, r29
    1480:	51 f0       	breq	.+20     	; 0x1496 <UI_CheckOptionConfig+0x11c>
    1482:	b1 cf       	rjmp	.-158    	; 0x13e6 <UI_CheckOptionConfig+0x6c>
    1484:	81 e0       	ldi	r24, 0x01	; 1
    1486:	01 c0       	rjmp	.+2      	; 0x148a <UI_CheckOptionConfig+0x110>
    1488:	82 e0       	ldi	r24, 0x02	; 2
    148a:	b1 d7       	rcall	.+3938   	; 0x23ee <__data_load_end+0x53e>
    148c:	81 e0       	ldi	r24, 0x01	; 1
    148e:	80 93 f8 02 	sts	0x02F8, r24
    1492:	01 c0       	rjmp	.+2      	; 0x1496 <UI_CheckOptionConfig+0x11c>
    1494:	80 e0       	ldi	r24, 0x00	; 0
    1496:	df 91       	pop	r29
    1498:	cf 91       	pop	r28
    149a:	1f 91       	pop	r17
    149c:	0f 91       	pop	r16
    149e:	ff 90       	pop	r15
    14a0:	ef 90       	pop	r14
    14a2:	df 90       	pop	r13
    14a4:	cf 90       	pop	r12
    14a6:	bf 90       	pop	r11
    14a8:	af 90       	pop	r10
    14aa:	08 95       	ret

000014ac <UI_Read_N_Point>:
    14ac:	4f 92       	push	r4
    14ae:	5f 92       	push	r5
    14b0:	6f 92       	push	r6
    14b2:	7f 92       	push	r7
    14b4:	9f 92       	push	r9
    14b6:	af 92       	push	r10
    14b8:	bf 92       	push	r11
    14ba:	cf 92       	push	r12
    14bc:	df 92       	push	r13
    14be:	ef 92       	push	r14
    14c0:	ff 92       	push	r15
    14c2:	0f 93       	push	r16
    14c4:	1f 93       	push	r17
    14c6:	cf 93       	push	r28
    14c8:	df 93       	push	r29
    14ca:	c8 2e       	mov	r12, r24
    14cc:	5b 01       	movw	r10, r22
    14ce:	6c ea       	ldi	r22, 0xAC	; 172
    14d0:	72 e0       	ldi	r23, 0x02	; 2
    14d2:	83 e0       	ldi	r24, 0x03	; 3
    14d4:	ff d6       	rcall	.+3582   	; 0x22d4 <__data_load_end+0x424>
    14d6:	60 e8       	ldi	r22, 0x80	; 128
    14d8:	72 e0       	ldi	r23, 0x02	; 2
    14da:	82 e0       	ldi	r24, 0x02	; 2
    14dc:	e1 d9       	rcall	.-3134   	; 0x8a0 <SetLedStateCyclicSequence>
    14de:	10 e0       	ldi	r17, 0x00	; 0
    14e0:	91 2c       	mov	r9, r1
    14e2:	d1 2c       	mov	r13, r1
    14e4:	c9 2d       	mov	r28, r9
    14e6:	09 2c       	mov	r0, r9
    14e8:	00 0c       	add	r0, r0
    14ea:	dd 0b       	sbc	r29, r29
    14ec:	cc 15       	cp	r28, r12
    14ee:	dd 05       	cpc	r29, r13
    14f0:	0c f0       	brlt	.+2      	; 0x14f4 <UI_Read_N_Point+0x48>
    14f2:	8f c0       	rjmp	.+286    	; 0x1612 <UI_Read_N_Point+0x166>
    14f4:	8a d9       	rcall	.-3308   	; 0x80a <Get_keys>
    14f6:	63 ff       	sbrs	r22, 3
    14f8:	8c c0       	rjmp	.+280    	; 0x1612 <UI_Read_N_Point+0x166>
    14fa:	9c 01       	movw	r18, r24
    14fc:	44 27       	eor	r20, r20
    14fe:	55 27       	eor	r21, r21
    1500:	2b 01       	movw	r4, r22
    1502:	3c 01       	movw	r6, r24
    1504:	66 24       	eor	r6, r6
    1506:	77 24       	eor	r7, r7
    1508:	42 26       	eor	r4, r18
    150a:	53 26       	eor	r5, r19
    150c:	64 26       	eor	r6, r20
    150e:	75 26       	eor	r7, r21
    1510:	46 22       	and	r4, r22
    1512:	57 22       	and	r5, r23
    1514:	68 22       	and	r6, r24
    1516:	79 22       	and	r7, r25
    1518:	44 fe       	sbrs	r4, 4
    151a:	14 c0       	rjmp	.+40     	; 0x1544 <UI_Read_N_Point+0x98>
    151c:	cc 0f       	add	r28, r28
    151e:	dd 1f       	adc	r29, r29
    1520:	ca 0d       	add	r28, r10
    1522:	db 1d       	adc	r29, r11
    1524:	80 e0       	ldi	r24, 0x00	; 0
    1526:	a3 dd       	rcall	.-1210   	; 0x106e <getRawStickValue>
    1528:	99 83       	std	Y+1, r25	; 0x01
    152a:	88 83       	st	Y, r24
    152c:	93 94       	inc	r9
    152e:	60 ed       	ldi	r22, 0xD0	; 208
    1530:	72 e0       	ldi	r23, 0x02	; 2
    1532:	83 e0       	ldi	r24, 0x03	; 3
    1534:	cf d6       	rcall	.+3486   	; 0x22d4 <__data_load_end+0x424>
    1536:	89 2d       	mov	r24, r9
    1538:	88 0f       	add	r24, r24
    153a:	60 e8       	ldi	r22, 0x80	; 128
    153c:	72 e0       	ldi	r23, 0x02	; 2
    153e:	8e 5f       	subi	r24, 0xFE	; 254
    1540:	af d9       	rcall	.-3234   	; 0x8a0 <SetLedStateCyclicSequence>
    1542:	11 e0       	ldi	r17, 0x01	; 1
    1544:	56 fe       	sbrs	r5, 6
    1546:	0b c0       	rjmp	.+22     	; 0x155e <UI_Read_N_Point+0xb2>
    1548:	93 94       	inc	r9
    154a:	6c ea       	ldi	r22, 0xAC	; 172
    154c:	72 e0       	ldi	r23, 0x02	; 2
    154e:	83 e0       	ldi	r24, 0x03	; 3
    1550:	c1 d6       	rcall	.+3458   	; 0x22d4 <__data_load_end+0x424>
    1552:	89 2d       	mov	r24, r9
    1554:	88 0f       	add	r24, r24
    1556:	60 e8       	ldi	r22, 0x80	; 128
    1558:	72 e0       	ldi	r23, 0x02	; 2
    155a:	8e 5f       	subi	r24, 0xFE	; 254
    155c:	a1 d9       	rcall	.-3262   	; 0x8a0 <SetLedStateCyclicSequence>
    155e:	c9 2d       	mov	r28, r9
    1560:	09 2c       	mov	r0, r9
    1562:	00 0c       	add	r0, r0
    1564:	dd 0b       	sbc	r29, r29
    1566:	47 fe       	sbrs	r4, 7
    1568:	2a c0       	rjmp	.+84     	; 0x15be <UI_Read_N_Point+0x112>
    156a:	7e 01       	movw	r14, r28
    156c:	ee 0c       	add	r14, r14
    156e:	ff 1c       	adc	r15, r15
    1570:	ea 0c       	add	r14, r10
    1572:	fb 1c       	adc	r15, r11
    1574:	f7 01       	movw	r30, r14
    1576:	00 81       	ld	r16, Z
    1578:	11 81       	ldd	r17, Z+1	; 0x01
    157a:	0c 59       	subi	r16, 0x9C	; 156
    157c:	1f 4f       	sbci	r17, 0xFF	; 255
    157e:	01 3d       	cpi	r16, 0xD1	; 209
    1580:	f7 e0       	ldi	r31, 0x07	; 7
    1582:	1f 07       	cpc	r17, r31
    1584:	3c f0       	brlt	.+14     	; 0x1594 <UI_Read_N_Point+0xe8>
    1586:	60 e1       	ldi	r22, 0x10	; 16
    1588:	71 e0       	ldi	r23, 0x01	; 1
    158a:	82 e0       	ldi	r24, 0x02	; 2
    158c:	a3 d6       	rcall	.+3398   	; 0x22d4 <__data_load_end+0x424>
    158e:	00 ed       	ldi	r16, 0xD0	; 208
    1590:	17 e0       	ldi	r17, 0x07	; 7
    1592:	11 c0       	rjmp	.+34     	; 0x15b6 <UI_Read_N_Point+0x10a>
    1594:	01 15       	cp	r16, r1
    1596:	11 05       	cpc	r17, r1
    1598:	29 f4       	brne	.+10     	; 0x15a4 <UI_Read_N_Point+0xf8>
    159a:	60 e0       	ldi	r22, 0x00	; 0
    159c:	71 e0       	ldi	r23, 0x01	; 1
    159e:	82 e0       	ldi	r24, 0x02	; 2
    15a0:	99 d6       	rcall	.+3378   	; 0x22d4 <__data_load_end+0x424>
    15a2:	09 c0       	rjmp	.+18     	; 0x15b6 <UI_Read_N_Point+0x10a>
    15a4:	60 91 10 01 	lds	r22, 0x0110
    15a8:	70 91 11 01 	lds	r23, 0x0111
    15ac:	80 91 12 01 	lds	r24, 0x0112
    15b0:	90 91 13 01 	lds	r25, 0x0113
    15b4:	7a d6       	rcall	.+3316   	; 0x22aa <__data_load_end+0x3fa>
    15b6:	f7 01       	movw	r30, r14
    15b8:	11 83       	std	Z+1, r17	; 0x01
    15ba:	00 83       	st	Z, r16
    15bc:	11 e0       	ldi	r17, 0x01	; 1
    15be:	57 fe       	sbrs	r5, 7
    15c0:	91 cf       	rjmp	.-222    	; 0x14e4 <UI_Read_N_Point+0x38>
    15c2:	cc 0f       	add	r28, r28
    15c4:	dd 1f       	adc	r29, r29
    15c6:	ca 0d       	add	r28, r10
    15c8:	db 1d       	adc	r29, r11
    15ca:	08 81       	ld	r16, Y
    15cc:	19 81       	ldd	r17, Y+1	; 0x01
    15ce:	04 56       	subi	r16, 0x64	; 100
    15d0:	11 09       	sbc	r17, r1
    15d2:	00 33       	cpi	r16, 0x30	; 48
    15d4:	f8 ef       	ldi	r31, 0xF8	; 248
    15d6:	1f 07       	cpc	r17, r31
    15d8:	3c f4       	brge	.+14     	; 0x15e8 <UI_Read_N_Point+0x13c>
    15da:	60 e1       	ldi	r22, 0x10	; 16
    15dc:	71 e0       	ldi	r23, 0x01	; 1
    15de:	82 e0       	ldi	r24, 0x02	; 2
    15e0:	79 d6       	rcall	.+3314   	; 0x22d4 <__data_load_end+0x424>
    15e2:	00 e3       	ldi	r16, 0x30	; 48
    15e4:	18 ef       	ldi	r17, 0xF8	; 248
    15e6:	11 c0       	rjmp	.+34     	; 0x160a <UI_Read_N_Point+0x15e>
    15e8:	01 15       	cp	r16, r1
    15ea:	11 05       	cpc	r17, r1
    15ec:	29 f4       	brne	.+10     	; 0x15f8 <UI_Read_N_Point+0x14c>
    15ee:	60 e0       	ldi	r22, 0x00	; 0
    15f0:	71 e0       	ldi	r23, 0x01	; 1
    15f2:	82 e0       	ldi	r24, 0x02	; 2
    15f4:	6f d6       	rcall	.+3294   	; 0x22d4 <__data_load_end+0x424>
    15f6:	09 c0       	rjmp	.+18     	; 0x160a <UI_Read_N_Point+0x15e>
    15f8:	60 91 10 01 	lds	r22, 0x0110
    15fc:	70 91 11 01 	lds	r23, 0x0111
    1600:	80 91 12 01 	lds	r24, 0x0112
    1604:	90 91 13 01 	lds	r25, 0x0113
    1608:	50 d6       	rcall	.+3232   	; 0x22aa <__data_load_end+0x3fa>
    160a:	19 83       	std	Y+1, r17	; 0x01
    160c:	08 83       	st	Y, r16
    160e:	11 e0       	ldi	r17, 0x01	; 1
    1610:	69 cf       	rjmp	.-302    	; 0x14e4 <UI_Read_N_Point+0x38>
    1612:	81 2f       	mov	r24, r17
    1614:	df 91       	pop	r29
    1616:	cf 91       	pop	r28
    1618:	1f 91       	pop	r17
    161a:	0f 91       	pop	r16
    161c:	ff 90       	pop	r15
    161e:	ef 90       	pop	r14
    1620:	df 90       	pop	r13
    1622:	cf 90       	pop	r12
    1624:	bf 90       	pop	r11
    1626:	af 90       	pop	r10
    1628:	9f 90       	pop	r9
    162a:	7f 90       	pop	r7
    162c:	6f 90       	pop	r6
    162e:	5f 90       	pop	r5
    1630:	4f 90       	pop	r4
    1632:	08 95       	ret

00001634 <UI_CheckGesture>:
    1634:	80 91 46 04 	lds	r24, 0x0446
    1638:	84 31       	cpi	r24, 0x14	; 20
    163a:	b1 f1       	breq	.+108    	; 0x16a8 <UI_CheckGesture+0x74>
    163c:	18 f4       	brcc	.+6      	; 0x1644 <UI_CheckGesture+0x10>
    163e:	81 31       	cpi	r24, 0x11	; 17
    1640:	39 f0       	breq	.+14     	; 0x1650 <UI_CheckGesture+0x1c>
    1642:	5b c0       	rjmp	.+182    	; 0x16fa <UI_CheckGesture+0xc6>
    1644:	81 34       	cpi	r24, 0x41	; 65
    1646:	79 f1       	breq	.+94     	; 0x16a6 <UI_CheckGesture+0x72>
    1648:	84 34       	cpi	r24, 0x44	; 68
    164a:	09 f0       	breq	.+2      	; 0x164e <UI_CheckGesture+0x1a>
    164c:	56 c0       	rjmp	.+172    	; 0x16fa <UI_CheckGesture+0xc6>
    164e:	7c ce       	rjmp	.-776    	; 0x1348 <UI_CheckR_Stick_ModelSelect>
    1650:	80 91 45 04 	lds	r24, 0x0445
    1654:	81 32       	cpi	r24, 0x21	; 33
    1656:	e9 f0       	breq	.+58     	; 0x1692 <UI_CheckGesture+0x5e>
    1658:	48 f4       	brcc	.+18     	; 0x166c <UI_CheckGesture+0x38>
    165a:	82 31       	cpi	r24, 0x12	; 18
    165c:	b9 f0       	breq	.+46     	; 0x168c <UI_CheckGesture+0x58>
    165e:	84 31       	cpi	r24, 0x14	; 20
    1660:	d1 f0       	breq	.+52     	; 0x1696 <UI_CheckGesture+0x62>
    1662:	81 31       	cpi	r24, 0x11	; 17
    1664:	09 f0       	breq	.+2      	; 0x1668 <UI_CheckGesture+0x34>
    1666:	49 c0       	rjmp	.+146    	; 0x16fa <UI_CheckGesture+0xc6>
    1668:	82 e0       	ldi	r24, 0x02	; 2
    166a:	18 c0       	rjmp	.+48     	; 0x169c <UI_CheckGesture+0x68>
    166c:	81 34       	cpi	r24, 0x41	; 65
    166e:	a9 f0       	breq	.+42     	; 0x169a <UI_CheckGesture+0x66>
    1670:	28 f4       	brcc	.+10     	; 0x167c <UI_CheckGesture+0x48>
    1672:	84 32       	cpi	r24, 0x24	; 36
    1674:	09 f0       	breq	.+2      	; 0x1678 <UI_CheckGesture+0x44>
    1676:	41 c0       	rjmp	.+130    	; 0x16fa <UI_CheckGesture+0xc6>
    1678:	80 e0       	ldi	r24, 0x00	; 0
    167a:	09 c0       	rjmp	.+18     	; 0x168e <UI_CheckGesture+0x5a>
    167c:	82 34       	cpi	r24, 0x42	; 66
    167e:	21 f0       	breq	.+8      	; 0x1688 <UI_CheckGesture+0x54>
    1680:	84 34       	cpi	r24, 0x44	; 68
    1682:	d9 f5       	brne	.+118    	; 0x16fa <UI_CheckGesture+0xc6>
    1684:	80 e0       	ldi	r24, 0x00	; 0
    1686:	0a c0       	rjmp	.+20     	; 0x169c <UI_CheckGesture+0x68>
    1688:	88 e1       	ldi	r24, 0x18	; 24
    168a:	01 c0       	rjmp	.+2      	; 0x168e <UI_CheckGesture+0x5a>
    168c:	80 e1       	ldi	r24, 0x10	; 16
    168e:	ac d6       	rcall	.+3416   	; 0x23e8 <__data_load_end+0x538>
    1690:	26 c0       	rjmp	.+76     	; 0x16de <UI_CheckGesture+0xaa>
    1692:	dd d6       	rcall	.+3514   	; 0x244e <__data_load_end+0x59e>
    1694:	04 c0       	rjmp	.+8      	; 0x169e <UI_CheckGesture+0x6a>
    1696:	81 e0       	ldi	r24, 0x01	; 1
    1698:	01 c0       	rjmp	.+2      	; 0x169c <UI_CheckGesture+0x68>
    169a:	83 e0       	ldi	r24, 0x03	; 3
    169c:	a2 d6       	rcall	.+3396   	; 0x23e2 <__data_load_end+0x532>
    169e:	81 e0       	ldi	r24, 0x01	; 1
    16a0:	80 93 f9 02 	sts	0x02F9, r24
    16a4:	08 95       	ret
    16a6:	69 ce       	rjmp	.-814    	; 0x137a <UI_CheckOptionConfig>
    16a8:	80 91 45 04 	lds	r24, 0x0445
    16ac:	84 31       	cpi	r24, 0x14	; 20
    16ae:	89 f0       	breq	.+34     	; 0x16d2 <UI_CheckGesture+0x9e>
    16b0:	38 f4       	brcc	.+14     	; 0x16c0 <UI_CheckGesture+0x8c>
    16b2:	81 31       	cpi	r24, 0x11	; 17
    16b4:	d9 f0       	breq	.+54     	; 0x16ec <UI_CheckGesture+0xb8>
    16b6:	82 31       	cpi	r24, 0x12	; 18
    16b8:	01 f5       	brne	.+64     	; 0x16fa <UI_CheckGesture+0xc6>
    16ba:	62 ef       	ldi	r22, 0xF2	; 242
    16bc:	73 e0       	ldi	r23, 0x03	; 3
    16be:	0b c0       	rjmp	.+22     	; 0x16d6 <UI_CheckGesture+0xa2>
    16c0:	82 34       	cpi	r24, 0x42	; 66
    16c2:	b9 f0       	breq	.+46     	; 0x16f2 <UI_CheckGesture+0xbe>
    16c4:	84 34       	cpi	r24, 0x44	; 68
    16c6:	79 f0       	breq	.+30     	; 0x16e6 <UI_CheckGesture+0xb2>
    16c8:	81 34       	cpi	r24, 0x41	; 65
    16ca:	b9 f4       	brne	.+46     	; 0x16fa <UI_CheckGesture+0xc6>
    16cc:	6e ec       	ldi	r22, 0xCE	; 206
    16ce:	73 e0       	ldi	r23, 0x03	; 3
    16d0:	02 c0       	rjmp	.+4      	; 0x16d6 <UI_CheckGesture+0xa2>
    16d2:	6a ed       	ldi	r22, 0xDA	; 218
    16d4:	73 e0       	ldi	r23, 0x03	; 3
    16d6:	86 e0       	ldi	r24, 0x06	; 6
    16d8:	e9 de       	rcall	.-558    	; 0x14ac <UI_Read_N_Point>
    16da:	88 23       	and	r24, r24
    16dc:	71 f0       	breq	.+28     	; 0x16fa <UI_CheckGesture+0xc6>
    16de:	81 e0       	ldi	r24, 0x01	; 1
    16e0:	80 93 f8 02 	sts	0x02F8, r24
    16e4:	08 95       	ret
    16e6:	66 ee       	ldi	r22, 0xE6	; 230
    16e8:	73 e0       	ldi	r23, 0x03	; 3
    16ea:	f5 cf       	rjmp	.-22     	; 0x16d6 <UI_CheckGesture+0xa2>
    16ec:	62 ec       	ldi	r22, 0xC2	; 194
    16ee:	73 e0       	ldi	r23, 0x03	; 3
    16f0:	f2 cf       	rjmp	.-28     	; 0x16d6 <UI_CheckGesture+0xa2>
    16f2:	6e eb       	ldi	r22, 0xBE	; 190
    16f4:	73 e0       	ldi	r23, 0x03	; 3
    16f6:	82 e0       	ldi	r24, 0x02	; 2
    16f8:	ef cf       	rjmp	.-34     	; 0x16d8 <UI_CheckGesture+0xa4>
    16fa:	80 e0       	ldi	r24, 0x00	; 0
    16fc:	08 95       	ret

000016fe <ReadSticks>:
    16fe:	ef 92       	push	r14
    1700:	ff 92       	push	r15
    1702:	0f 93       	push	r16
    1704:	1f 93       	push	r17
    1706:	cf 93       	push	r28
    1708:	df 93       	push	r29
    170a:	80 e0       	ldi	r24, 0x00	; 0
    170c:	e9 d4       	rcall	.+2514   	; 0x20e0 <__data_load_end+0x230>
    170e:	7c 01       	movw	r14, r24
    1710:	81 e0       	ldi	r24, 0x01	; 1
    1712:	e6 d4       	rcall	.+2508   	; 0x20e0 <__data_load_end+0x230>
    1714:	8c 01       	movw	r16, r24
    1716:	82 e0       	ldi	r24, 0x02	; 2
    1718:	e3 d4       	rcall	.+2502   	; 0x20e0 <__data_load_end+0x230>
    171a:	ec 01       	movw	r28, r24
    171c:	83 e0       	ldi	r24, 0x03	; 3
    171e:	e0 d4       	rcall	.+2496   	; 0x20e0 <__data_load_end+0x230>
    1720:	ac 01       	movw	r20, r24
    1722:	81 e0       	ldi	r24, 0x01	; 1
    1724:	9f ef       	ldi	r25, 0xFF	; 255
    1726:	e9 16       	cp	r14, r25
    1728:	f1 04       	cpc	r15, r1
    172a:	08 f0       	brcs	.+2      	; 0x172e <ReadSticks+0x30>
    172c:	80 e0       	ldi	r24, 0x00	; 0
    172e:	e1 14       	cp	r14, r1
    1730:	93 e0       	ldi	r25, 0x03	; 3
    1732:	f9 06       	cpc	r15, r25
    1734:	10 f4       	brcc	.+4      	; 0x173a <ReadSticks+0x3c>
    1736:	20 e0       	ldi	r18, 0x00	; 0
    1738:	01 c0       	rjmp	.+2      	; 0x173c <ReadSticks+0x3e>
    173a:	24 e0       	ldi	r18, 0x04	; 4
    173c:	28 2b       	or	r18, r24
    173e:	fa 94       	dec	r15
    1740:	9f ef       	ldi	r25, 0xFF	; 255
    1742:	e9 16       	cp	r14, r25
    1744:	91 e0       	ldi	r25, 0x01	; 1
    1746:	f9 06       	cpc	r15, r25
    1748:	10 f0       	brcs	.+4      	; 0x174e <ReadSticks+0x50>
    174a:	80 e0       	ldi	r24, 0x00	; 0
    174c:	01 c0       	rjmp	.+2      	; 0x1750 <ReadSticks+0x52>
    174e:	82 e0       	ldi	r24, 0x02	; 2
    1750:	32 2f       	mov	r19, r18
    1752:	38 2b       	or	r19, r24
    1754:	0f 3f       	cpi	r16, 0xFF	; 255
    1756:	11 05       	cpc	r17, r1
    1758:	30 f0       	brcs	.+12     	; 0x1766 <ReadSticks+0x68>
    175a:	90 e0       	ldi	r25, 0x00	; 0
    175c:	01 15       	cp	r16, r1
    175e:	83 e0       	ldi	r24, 0x03	; 3
    1760:	18 07       	cpc	r17, r24
    1762:	20 f4       	brcc	.+8      	; 0x176c <ReadSticks+0x6e>
    1764:	01 c0       	rjmp	.+2      	; 0x1768 <ReadSticks+0x6a>
    1766:	90 e1       	ldi	r25, 0x10	; 16
    1768:	20 e0       	ldi	r18, 0x00	; 0
    176a:	01 c0       	rjmp	.+2      	; 0x176e <ReadSticks+0x70>
    176c:	20 e4       	ldi	r18, 0x40	; 64
    176e:	1a 95       	dec	r17
    1770:	0f 3f       	cpi	r16, 0xFF	; 255
    1772:	11 40       	sbci	r17, 0x01	; 1
    1774:	10 f0       	brcs	.+4      	; 0x177a <ReadSticks+0x7c>
    1776:	80 e0       	ldi	r24, 0x00	; 0
    1778:	01 c0       	rjmp	.+2      	; 0x177c <ReadSticks+0x7e>
    177a:	80 e2       	ldi	r24, 0x20	; 32
    177c:	23 2b       	or	r18, r19
    177e:	92 2b       	or	r25, r18
    1780:	98 2b       	or	r25, r24
    1782:	90 93 46 04 	sts	0x0446, r25
    1786:	81 e0       	ldi	r24, 0x01	; 1
    1788:	cf 3f       	cpi	r28, 0xFF	; 255
    178a:	d1 05       	cpc	r29, r1
    178c:	08 f0       	brcs	.+2      	; 0x1790 <ReadSticks+0x92>
    178e:	80 e0       	ldi	r24, 0x00	; 0
    1790:	c1 15       	cp	r28, r1
    1792:	93 e0       	ldi	r25, 0x03	; 3
    1794:	d9 07       	cpc	r29, r25
    1796:	10 f4       	brcc	.+4      	; 0x179c <ReadSticks+0x9e>
    1798:	20 e0       	ldi	r18, 0x00	; 0
    179a:	01 c0       	rjmp	.+2      	; 0x179e <ReadSticks+0xa0>
    179c:	24 e0       	ldi	r18, 0x04	; 4
    179e:	28 2b       	or	r18, r24
    17a0:	da 95       	dec	r29
    17a2:	cf 3f       	cpi	r28, 0xFF	; 255
    17a4:	d1 40       	sbci	r29, 0x01	; 1
    17a6:	10 f0       	brcs	.+4      	; 0x17ac <ReadSticks+0xae>
    17a8:	80 e0       	ldi	r24, 0x00	; 0
    17aa:	01 c0       	rjmp	.+2      	; 0x17ae <ReadSticks+0xb0>
    17ac:	82 e0       	ldi	r24, 0x02	; 2
    17ae:	32 2f       	mov	r19, r18
    17b0:	38 2b       	or	r19, r24
    17b2:	4f 3f       	cpi	r20, 0xFF	; 255
    17b4:	51 05       	cpc	r21, r1
    17b6:	30 f0       	brcs	.+12     	; 0x17c4 <ReadSticks+0xc6>
    17b8:	41 15       	cp	r20, r1
    17ba:	93 e0       	ldi	r25, 0x03	; 3
    17bc:	59 07       	cpc	r21, r25
    17be:	28 f4       	brcc	.+10     	; 0x17ca <ReadSticks+0xcc>
    17c0:	90 e0       	ldi	r25, 0x00	; 0
    17c2:	01 c0       	rjmp	.+2      	; 0x17c6 <ReadSticks+0xc8>
    17c4:	90 e1       	ldi	r25, 0x10	; 16
    17c6:	20 e0       	ldi	r18, 0x00	; 0
    17c8:	02 c0       	rjmp	.+4      	; 0x17ce <ReadSticks+0xd0>
    17ca:	90 e0       	ldi	r25, 0x00	; 0
    17cc:	20 e4       	ldi	r18, 0x40	; 64
    17ce:	5a 95       	dec	r21
    17d0:	4f 3f       	cpi	r20, 0xFF	; 255
    17d2:	51 40       	sbci	r21, 0x01	; 1
    17d4:	10 f0       	brcs	.+4      	; 0x17da <ReadSticks+0xdc>
    17d6:	80 e0       	ldi	r24, 0x00	; 0
    17d8:	01 c0       	rjmp	.+2      	; 0x17dc <ReadSticks+0xde>
    17da:	80 e2       	ldi	r24, 0x20	; 32
    17dc:	23 2b       	or	r18, r19
    17de:	92 2b       	or	r25, r18
    17e0:	98 2b       	or	r25, r24
    17e2:	90 93 45 04 	sts	0x0445, r25
    17e6:	df 91       	pop	r29
    17e8:	cf 91       	pop	r28
    17ea:	1f 91       	pop	r17
    17ec:	0f 91       	pop	r16
    17ee:	ff 90       	pop	r15
    17f0:	ef 90       	pop	r14
    17f2:	08 95       	ret

000017f4 <UI_ProceedConfigMode2>:
    17f4:	cf 92       	push	r12
    17f6:	df 92       	push	r13
    17f8:	ef 92       	push	r14
    17fa:	ff 92       	push	r15
    17fc:	cf 93       	push	r28
    17fe:	bc 01       	movw	r22, r24
    1800:	c0 90 41 04 	lds	r12, 0x0441
    1804:	d0 90 42 04 	lds	r13, 0x0442
    1808:	e0 90 43 04 	lds	r14, 0x0443
    180c:	f0 90 44 04 	lds	r15, 0x0444
    1810:	60 31       	cpi	r22, 0x10	; 16
    1812:	71 05       	cpc	r23, r1
    1814:	09 f0       	breq	.+2      	; 0x1818 <UI_ProceedConfigMode2+0x24>
    1816:	4f c0       	rjmp	.+158    	; 0x18b6 <UI_ProceedConfigMode2+0xc2>
    1818:	80 91 41 04 	lds	r24, 0x0441
    181c:	90 91 42 04 	lds	r25, 0x0442
    1820:	a0 91 43 04 	lds	r26, 0x0443
    1824:	b0 91 44 04 	lds	r27, 0x0444
    1828:	8c 19       	sub	r24, r12
    182a:	9d 09       	sbc	r25, r13
    182c:	ae 09       	sbc	r26, r14
    182e:	bf 09       	sbc	r27, r15
    1830:	89 3e       	cpi	r24, 0xE9	; 233
    1832:	93 40       	sbci	r25, 0x03	; 3
    1834:	a1 05       	cpc	r26, r1
    1836:	b1 05       	cpc	r27, r1
    1838:	98 f1       	brcs	.+102    	; 0x18a0 <UI_ProceedConfigMode2+0xac>
    183a:	60 38       	cpi	r22, 0x80	; 128
    183c:	71 05       	cpc	r23, r1
    183e:	21 f1       	breq	.+72     	; 0x1888 <UI_ProceedConfigMode2+0x94>
    1840:	58 f4       	brcc	.+22     	; 0x1858 <UI_ProceedConfigMode2+0x64>
    1842:	60 31       	cpi	r22, 0x10	; 16
    1844:	71 05       	cpc	r23, r1
    1846:	e9 f0       	breq	.+58     	; 0x1882 <UI_ProceedConfigMode2+0x8e>
    1848:	60 34       	cpi	r22, 0x40	; 64
    184a:	71 05       	cpc	r23, r1
    184c:	21 f1       	breq	.+72     	; 0x1896 <UI_ProceedConfigMode2+0xa2>
    184e:	64 30       	cpi	r22, 0x04	; 4
    1850:	71 05       	cpc	r23, r1
    1852:	31 f5       	brne	.+76     	; 0x18a0 <UI_ProceedConfigMode2+0xac>
    1854:	61 e0       	ldi	r22, 0x01	; 1
    1856:	1b c0       	rjmp	.+54     	; 0x188e <UI_ProceedConfigMode2+0x9a>
    1858:	61 15       	cp	r22, r1
    185a:	80 e1       	ldi	r24, 0x10	; 16
    185c:	78 07       	cpc	r23, r24
    185e:	79 f0       	breq	.+30     	; 0x187e <UI_ProceedConfigMode2+0x8a>
    1860:	28 f4       	brcc	.+10     	; 0x186c <UI_ProceedConfigMode2+0x78>
    1862:	61 15       	cp	r22, r1
    1864:	74 40       	sbci	r23, 0x04	; 4
    1866:	e1 f4       	brne	.+56     	; 0x18a0 <UI_ProceedConfigMode2+0xac>
    1868:	60 e0       	ldi	r22, 0x00	; 0
    186a:	11 c0       	rjmp	.+34     	; 0x188e <UI_ProceedConfigMode2+0x9a>
    186c:	61 15       	cp	r22, r1
    186e:	20 e4       	ldi	r18, 0x40	; 64
    1870:	72 07       	cpc	r23, r18
    1872:	79 f0       	breq	.+30     	; 0x1892 <UI_ProceedConfigMode2+0x9e>
    1874:	61 15       	cp	r22, r1
    1876:	70 48       	sbci	r23, 0x80	; 128
    1878:	99 f4       	brne	.+38     	; 0x18a0 <UI_ProceedConfigMode2+0xac>
    187a:	61 e0       	ldi	r22, 0x01	; 1
    187c:	06 c0       	rjmp	.+12     	; 0x188a <UI_ProceedConfigMode2+0x96>
    187e:	61 e0       	ldi	r22, 0x01	; 1
    1880:	01 c0       	rjmp	.+2      	; 0x1884 <UI_ProceedConfigMode2+0x90>
    1882:	60 e0       	ldi	r22, 0x00	; 0
    1884:	80 e0       	ldi	r24, 0x00	; 0
    1886:	09 c0       	rjmp	.+18     	; 0x189a <UI_ProceedConfigMode2+0xa6>
    1888:	60 e0       	ldi	r22, 0x00	; 0
    188a:	82 e0       	ldi	r24, 0x02	; 2
    188c:	06 c0       	rjmp	.+12     	; 0x189a <UI_ProceedConfigMode2+0xa6>
    188e:	81 e0       	ldi	r24, 0x01	; 1
    1890:	04 c0       	rjmp	.+8      	; 0x189a <UI_ProceedConfigMode2+0xa6>
    1892:	61 e0       	ldi	r22, 0x01	; 1
    1894:	01 c0       	rjmp	.+2      	; 0x1898 <UI_ProceedConfigMode2+0xa4>
    1896:	60 e0       	ldi	r22, 0x00	; 0
    1898:	83 e0       	ldi	r24, 0x03	; 3
    189a:	87 d5       	rcall	.+2830   	; 0x23aa <__data_load_end+0x4fa>
    189c:	c1 e0       	ldi	r28, 0x01	; 1
    189e:	01 c0       	rjmp	.+2      	; 0x18a2 <UI_ProceedConfigMode2+0xae>
    18a0:	c0 e0       	ldi	r28, 0x00	; 0
    18a2:	b3 d7       	rcall	.+3942   	; 0x280a <__data_load_end+0x95a>
    18a4:	cc 23       	and	r28, r28
    18a6:	09 f4       	brne	.+2      	; 0x18aa <UI_ProceedConfigMode2+0xb6>
    18a8:	b3 cf       	rjmp	.-154    	; 0x1810 <UI_ProceedConfigMode2+0x1c>
    18aa:	60 ed       	ldi	r22, 0xD0	; 208
    18ac:	72 e0       	ldi	r23, 0x02	; 2
    18ae:	83 e0       	ldi	r24, 0x03	; 3
    18b0:	11 d5       	rcall	.+2594   	; 0x22d4 <__data_load_end+0x424>
    18b2:	5a d5       	rcall	.+2740   	; 0x2368 <__data_load_end+0x4b8>
    18b4:	20 c0       	rjmp	.+64     	; 0x18f6 <UI_ProceedConfigMode2+0x102>
    18b6:	61 15       	cp	r22, r1
    18b8:	20 e1       	ldi	r18, 0x10	; 16
    18ba:	72 07       	cpc	r23, r18
    18bc:	09 f4       	brne	.+2      	; 0x18c0 <UI_ProceedConfigMode2+0xcc>
    18be:	ac cf       	rjmp	.-168    	; 0x1818 <UI_ProceedConfigMode2+0x24>
    18c0:	60 38       	cpi	r22, 0x80	; 128
    18c2:	71 05       	cpc	r23, r1
    18c4:	09 f4       	brne	.+2      	; 0x18c8 <UI_ProceedConfigMode2+0xd4>
    18c6:	a8 cf       	rjmp	.-176    	; 0x1818 <UI_ProceedConfigMode2+0x24>
    18c8:	61 15       	cp	r22, r1
    18ca:	80 e8       	ldi	r24, 0x80	; 128
    18cc:	78 07       	cpc	r23, r24
    18ce:	09 f4       	brne	.+2      	; 0x18d2 <UI_ProceedConfigMode2+0xde>
    18d0:	a3 cf       	rjmp	.-186    	; 0x1818 <UI_ProceedConfigMode2+0x24>
    18d2:	61 15       	cp	r22, r1
    18d4:	24 e0       	ldi	r18, 0x04	; 4
    18d6:	72 07       	cpc	r23, r18
    18d8:	09 f4       	brne	.+2      	; 0x18dc <UI_ProceedConfigMode2+0xe8>
    18da:	9e cf       	rjmp	.-196    	; 0x1818 <UI_ProceedConfigMode2+0x24>
    18dc:	64 30       	cpi	r22, 0x04	; 4
    18de:	71 05       	cpc	r23, r1
    18e0:	09 f4       	brne	.+2      	; 0x18e4 <UI_ProceedConfigMode2+0xf0>
    18e2:	9a cf       	rjmp	.-204    	; 0x1818 <UI_ProceedConfigMode2+0x24>
    18e4:	60 34       	cpi	r22, 0x40	; 64
    18e6:	71 05       	cpc	r23, r1
    18e8:	09 f4       	brne	.+2      	; 0x18ec <UI_ProceedConfigMode2+0xf8>
    18ea:	96 cf       	rjmp	.-212    	; 0x1818 <UI_ProceedConfigMode2+0x24>
    18ec:	61 15       	cp	r22, r1
    18ee:	80 e4       	ldi	r24, 0x40	; 64
    18f0:	78 07       	cpc	r23, r24
    18f2:	09 f4       	brne	.+2      	; 0x18f6 <UI_ProceedConfigMode2+0x102>
    18f4:	91 cf       	rjmp	.-222    	; 0x1818 <UI_ProceedConfigMode2+0x24>
    18f6:	03 df       	rcall	.-506    	; 0x16fe <ReadSticks>
    18f8:	80 91 99 03 	lds	r24, 0x0399
    18fc:	84 fd       	sbrc	r24, 4
    18fe:	02 c0       	rjmp	.+4      	; 0x1904 <UI_ProceedConfigMode2+0x110>
    1900:	c0 e0       	ldi	r28, 0x00	; 0
    1902:	10 c0       	rjmp	.+32     	; 0x1924 <UI_ProceedConfigMode2+0x130>
    1904:	80 91 46 04 	lds	r24, 0x0446
    1908:	84 34       	cpi	r24, 0x44	; 68
    190a:	d1 f7       	brne	.-12     	; 0x1900 <UI_ProceedConfigMode2+0x10c>
    190c:	1d dd       	rcall	.-1478   	; 0x1348 <UI_CheckR_Stick_ModelSelect>
    190e:	c8 2f       	mov	r28, r24
    1910:	88 23       	and	r24, r24
    1912:	b1 f3       	breq	.-20     	; 0x1900 <UI_ProceedConfigMode2+0x10c>
    1914:	64 ec       	ldi	r22, 0xC4	; 196
    1916:	72 e0       	ldi	r23, 0x02	; 2
    1918:	83 e0       	ldi	r24, 0x03	; 3
    191a:	dc d4       	rcall	.+2488   	; 0x22d4 <__data_load_end+0x424>
    191c:	25 d5       	rcall	.+2634   	; 0x2368 <__data_load_end+0x4b8>
    191e:	a1 d4       	rcall	.+2370   	; 0x2262 <__data_load_end+0x3b2>
    1920:	81 11       	cpse	r24, r1
    1922:	fd cf       	rjmp	.-6      	; 0x191e <UI_ProceedConfigMode2+0x12a>
    1924:	8c 2f       	mov	r24, r28
    1926:	cf 91       	pop	r28
    1928:	ff 90       	pop	r15
    192a:	ef 90       	pop	r14
    192c:	df 90       	pop	r13
    192e:	cf 90       	pop	r12
    1930:	08 95       	ret

00001932 <UI_ProceedConfigMode>:
    1932:	2f 92       	push	r2
    1934:	3f 92       	push	r3
    1936:	4f 92       	push	r4
    1938:	5f 92       	push	r5
    193a:	6f 92       	push	r6
    193c:	7f 92       	push	r7
    193e:	8f 92       	push	r8
    1940:	9f 92       	push	r9
    1942:	af 92       	push	r10
    1944:	bf 92       	push	r11
    1946:	cf 92       	push	r12
    1948:	df 92       	push	r13
    194a:	ef 92       	push	r14
    194c:	ff 92       	push	r15
    194e:	0f 93       	push	r16
    1950:	1f 93       	push	r17
    1952:	cf 93       	push	r28
    1954:	df 93       	push	r29
    1956:	00 d0       	rcall	.+0      	; 0x1958 <UI_ProceedConfigMode+0x26>
    1958:	1f 92       	push	r1
    195a:	cd b7       	in	r28, 0x3d	; 61
    195c:	de b7       	in	r29, 0x3e	; 62
    195e:	55 d7       	rcall	.+3754   	; 0x280a <__data_load_end+0x95a>
    1960:	2b 01       	movw	r4, r22
    1962:	3c 01       	movw	r6, r24
    1964:	80 91 f9 02 	lds	r24, 0x02F9
    1968:	81 11       	cpse	r24, r1
    196a:	04 c0       	rjmp	.+8      	; 0x1974 <UI_ProceedConfigMode+0x42>
    196c:	90 90 f8 02 	lds	r9, 0x02F8
    1970:	89 2d       	mov	r24, r9
    1972:	02 c0       	rjmp	.+4      	; 0x1978 <UI_ProceedConfigMode+0x46>
    1974:	81 e0       	ldi	r24, 0x01	; 1
    1976:	90 e0       	ldi	r25, 0x00	; 0
    1978:	28 2f       	mov	r18, r24
    197a:	21 70       	andi	r18, 0x01	; 1
    197c:	92 2e       	mov	r9, r18
    197e:	80 91 9a 02 	lds	r24, 0x029A
    1982:	90 91 9b 02 	lds	r25, 0x029B
    1986:	9b 83       	std	Y+3, r25	; 0x03
    1988:	8a 83       	std	Y+2, r24	; 0x02
    198a:	00 91 98 02 	lds	r16, 0x0298
    198e:	10 91 99 02 	lds	r17, 0x0299
    1992:	bc 01       	movw	r22, r24
    1994:	c8 01       	movw	r24, r16
    1996:	6b d7       	rcall	.+3798   	; 0x286e <__data_load_end+0x9be>
    1998:	21 e0       	ldi	r18, 0x01	; 1
    199a:	29 83       	std	Y+1, r18	; 0x01
    199c:	20 90 9e 02 	lds	r2, 0x029E
    19a0:	30 90 9f 02 	lds	r3, 0x029F
    19a4:	a0 90 9c 02 	lds	r10, 0x029C
    19a8:	b0 90 9d 02 	lds	r11, 0x029D
    19ac:	43 fe       	sbrs	r4, 3
    19ae:	9d c0       	rjmp	.+314    	; 0x1aea <UI_ProceedConfigMode+0x1b8>
    19b0:	2c d7       	rcall	.+3672   	; 0x280a <__data_load_end+0x95a>
    19b2:	2b 01       	movw	r4, r22
    19b4:	3c 01       	movw	r6, r24
    19b6:	a3 de       	rcall	.-698    	; 0x16fe <ReadSticks>
    19b8:	29 81       	ldd	r18, Y+1	; 0x01
    19ba:	22 23       	and	r18, r18
    19bc:	c9 f0       	breq	.+50     	; 0x19f0 <UI_ProceedConfigMode+0xbe>
    19be:	3a de       	rcall	.-908    	; 0x1634 <UI_CheckGesture>
    19c0:	88 23       	and	r24, r24
    19c2:	51 f0       	breq	.+20     	; 0x19d8 <UI_ProceedConfigMode+0xa6>
    19c4:	60 ed       	ldi	r22, 0xD0	; 208
    19c6:	72 e0       	ldi	r23, 0x02	; 2
    19c8:	83 e0       	ldi	r24, 0x03	; 3
    19ca:	84 d4       	rcall	.+2312   	; 0x22d4 <__data_load_end+0x424>
    19cc:	b1 01       	movw	r22, r2
    19ce:	c5 01       	movw	r24, r10
    19d0:	4e d7       	rcall	.+3740   	; 0x286e <__data_load_end+0x9be>
    19d2:	99 24       	eor	r9, r9
    19d4:	93 94       	inc	r9
    19d6:	27 c0       	rjmp	.+78     	; 0x1a26 <UI_ProceedConfigMode+0xf4>
    19d8:	68 eb       	ldi	r22, 0xB8	; 184
    19da:	72 e0       	ldi	r23, 0x02	; 2
    19dc:	83 e0       	ldi	r24, 0x03	; 3
    19de:	7a d4       	rcall	.+2292   	; 0x22d4 <__data_load_end+0x424>
    19e0:	6a 81       	ldd	r22, Y+2	; 0x02
    19e2:	7b 81       	ldd	r23, Y+3	; 0x03
    19e4:	c8 01       	movw	r24, r16
    19e6:	43 d7       	rcall	.+3718   	; 0x286e <__data_load_end+0x9be>
    19e8:	3c d4       	rcall	.+2168   	; 0x2262 <__data_load_end+0x3b2>
    19ea:	81 11       	cpse	r24, r1
    19ec:	fd cf       	rjmp	.-6      	; 0x19e8 <UI_ProceedConfigMode+0xb6>
    19ee:	1b c0       	rjmp	.+54     	; 0x1a26 <UI_ProceedConfigMode+0xf4>
    19f0:	99 20       	and	r9, r9
    19f2:	c9 f0       	breq	.+50     	; 0x1a26 <UI_ProceedConfigMode+0xf4>
    19f4:	42 fe       	sbrs	r4, 2
    19f6:	17 c0       	rjmp	.+46     	; 0x1a26 <UI_ProceedConfigMode+0xf4>
    19f8:	64 ec       	ldi	r22, 0xC4	; 196
    19fa:	72 e0       	ldi	r23, 0x02	; 2
    19fc:	83 e0       	ldi	r24, 0x03	; 3
    19fe:	6a d4       	rcall	.+2260   	; 0x22d4 <__data_load_end+0x424>
    1a00:	80 91 f9 02 	lds	r24, 0x02F9
    1a04:	88 23       	and	r24, r24
    1a06:	19 f0       	breq	.+6      	; 0x1a0e <UI_ProceedConfigMode+0xdc>
    1a08:	af d4       	rcall	.+2398   	; 0x2368 <__data_load_end+0x4b8>
    1a0a:	10 92 f9 02 	sts	0x02F9, r1
    1a0e:	80 91 f8 02 	lds	r24, 0x02F8
    1a12:	88 23       	and	r24, r24
    1a14:	19 f0       	breq	.+6      	; 0x1a1c <UI_ProceedConfigMode+0xea>
    1a16:	af d4       	rcall	.+2398   	; 0x2376 <__data_load_end+0x4c6>
    1a18:	10 92 f8 02 	sts	0x02F8, r1
    1a1c:	6a 81       	ldd	r22, Y+2	; 0x02
    1a1e:	7b 81       	ldd	r23, Y+3	; 0x03
    1a20:	c8 01       	movw	r24, r16
    1a22:	25 d7       	rcall	.+3658   	; 0x286e <__data_load_end+0x9be>
    1a24:	91 2c       	mov	r9, r1
    1a26:	63 01       	movw	r12, r6
    1a28:	ee 24       	eor	r14, r14
    1a2a:	ff 24       	eor	r15, r15
    1a2c:	d3 01       	movw	r26, r6
    1a2e:	c2 01       	movw	r24, r4
    1a30:	aa 27       	eor	r26, r26
    1a32:	bb 27       	eor	r27, r27
    1a34:	c8 26       	eor	r12, r24
    1a36:	d9 26       	eor	r13, r25
    1a38:	ea 26       	eor	r14, r26
    1a3a:	fb 26       	eor	r15, r27
    1a3c:	c4 20       	and	r12, r4
    1a3e:	d5 20       	and	r13, r5
    1a40:	e6 20       	and	r14, r6
    1a42:	f7 20       	and	r15, r7
    1a44:	d7 01       	movw	r26, r14
    1a46:	c6 01       	movw	r24, r12
    1a48:	24 e0       	ldi	r18, 0x04	; 4
    1a4a:	b6 95       	lsr	r27
    1a4c:	a7 95       	ror	r26
    1a4e:	97 95       	ror	r25
    1a50:	87 95       	ror	r24
    1a52:	2a 95       	dec	r18
    1a54:	d1 f7       	brne	.-12     	; 0x1a4a <UI_ProceedConfigMode+0x118>
    1a56:	28 2f       	mov	r18, r24
    1a58:	21 70       	andi	r18, 0x01	; 1
    1a5a:	29 83       	std	Y+1, r18	; 0x01
    1a5c:	c7 fe       	sbrs	r12, 7
    1a5e:	23 c0       	rjmp	.+70     	; 0x1aa6 <UI_ProceedConfigMode+0x174>
    1a60:	80 90 bd 03 	lds	r8, 0x03BD
    1a64:	91 2c       	mov	r9, r1
    1a66:	8f e0       	ldi	r24, 0x0F	; 15
    1a68:	88 0e       	add	r8, r24
    1a6a:	91 1c       	adc	r9, r1
    1a6c:	9f ef       	ldi	r25, 0xFF	; 255
    1a6e:	89 16       	cp	r8, r25
    1a70:	91 04       	cpc	r9, r1
    1a72:	49 f0       	breq	.+18     	; 0x1a86 <UI_ProceedConfigMode+0x154>
    1a74:	44 f0       	brlt	.+16     	; 0x1a86 <UI_ProceedConfigMode+0x154>
    1a76:	60 e1       	ldi	r22, 0x10	; 16
    1a78:	71 e0       	ldi	r23, 0x01	; 1
    1a7a:	82 e0       	ldi	r24, 0x02	; 2
    1a7c:	2b d4       	rcall	.+2134   	; 0x22d4 <__data_load_end+0x424>
    1a7e:	88 24       	eor	r8, r8
    1a80:	8a 94       	dec	r8
    1a82:	91 2c       	mov	r9, r1
    1a84:	09 c0       	rjmp	.+18     	; 0x1a98 <UI_ProceedConfigMode+0x166>
    1a86:	60 91 10 01 	lds	r22, 0x0110
    1a8a:	70 91 11 01 	lds	r23, 0x0111
    1a8e:	80 91 12 01 	lds	r24, 0x0112
    1a92:	90 91 13 01 	lds	r25, 0x0113
    1a96:	09 d4       	rcall	.+2066   	; 0x22aa <__data_load_end+0x3fa>
    1a98:	80 92 bd 03 	sts	0x03BD, r8
    1a9c:	e1 e0       	ldi	r30, 0x01	; 1
    1a9e:	e0 93 f8 02 	sts	0x02F8, r30
    1aa2:	99 24       	eor	r9, r9
    1aa4:	93 94       	inc	r9
    1aa6:	d7 fe       	sbrs	r13, 7
    1aa8:	81 cf       	rjmp	.-254    	; 0x19ac <UI_ProceedConfigMode+0x7a>
    1aaa:	e0 90 bd 03 	lds	r14, 0x03BD
    1aae:	f1 2c       	mov	r15, r1
    1ab0:	ff e0       	ldi	r31, 0x0F	; 15
    1ab2:	ef 1a       	sub	r14, r31
    1ab4:	f1 08       	sbc	r15, r1
    1ab6:	f7 fe       	sbrs	r15, 7
    1ab8:	07 c0       	rjmp	.+14     	; 0x1ac8 <UI_ProceedConfigMode+0x196>
    1aba:	60 e1       	ldi	r22, 0x10	; 16
    1abc:	71 e0       	ldi	r23, 0x01	; 1
    1abe:	82 e0       	ldi	r24, 0x02	; 2
    1ac0:	09 d4       	rcall	.+2066   	; 0x22d4 <__data_load_end+0x424>
    1ac2:	e1 2c       	mov	r14, r1
    1ac4:	f1 2c       	mov	r15, r1
    1ac6:	09 c0       	rjmp	.+18     	; 0x1ada <UI_ProceedConfigMode+0x1a8>
    1ac8:	60 91 14 01 	lds	r22, 0x0114
    1acc:	70 91 15 01 	lds	r23, 0x0115
    1ad0:	80 91 16 01 	lds	r24, 0x0116
    1ad4:	90 91 17 01 	lds	r25, 0x0117
    1ad8:	e8 d3       	rcall	.+2000   	; 0x22aa <__data_load_end+0x3fa>
    1ada:	e0 92 bd 03 	sts	0x03BD, r14
    1ade:	21 e0       	ldi	r18, 0x01	; 1
    1ae0:	20 93 f8 02 	sts	0x02F8, r18
    1ae4:	99 24       	eor	r9, r9
    1ae6:	93 94       	inc	r9
    1ae8:	61 cf       	rjmp	.-318    	; 0x19ac <UI_ProceedConfigMode+0x7a>
    1aea:	89 2d       	mov	r24, r9
    1aec:	0f 90       	pop	r0
    1aee:	0f 90       	pop	r0
    1af0:	0f 90       	pop	r0
    1af2:	df 91       	pop	r29
    1af4:	cf 91       	pop	r28
    1af6:	1f 91       	pop	r17
    1af8:	0f 91       	pop	r16
    1afa:	ff 90       	pop	r15
    1afc:	ef 90       	pop	r14
    1afe:	df 90       	pop	r13
    1b00:	cf 90       	pop	r12
    1b02:	bf 90       	pop	r11
    1b04:	af 90       	pop	r10
    1b06:	9f 90       	pop	r9
    1b08:	8f 90       	pop	r8
    1b0a:	7f 90       	pop	r7
    1b0c:	6f 90       	pop	r6
    1b0e:	5f 90       	pop	r5
    1b10:	4f 90       	pop	r4
    1b12:	3f 90       	pop	r3
    1b14:	2f 90       	pop	r2
    1b16:	08 95       	ret

00001b18 <UI_CheckForConfig>:
    1b18:	83 ff       	sbrs	r24, 3
    1b1a:	1e c0       	rjmp	.+60     	; 0x1b58 <UI_CheckForConfig+0x40>
    1b1c:	80 91 99 03 	lds	r24, 0x0399
    1b20:	85 ff       	sbrs	r24, 5
    1b22:	1a c0       	rjmp	.+52     	; 0x1b58 <UI_CheckForConfig+0x40>
    1b24:	80 e0       	ldi	r24, 0x00	; 0
    1b26:	a3 da       	rcall	.-2746   	; 0x106e <getRawStickValue>
    1b28:	84 32       	cpi	r24, 0x24	; 36
    1b2a:	9a 4f       	sbci	r25, 0xFA	; 250
    1b2c:	74 f4       	brge	.+28     	; 0x1b4a <UI_CheckForConfig+0x32>
    1b2e:	01 df       	rcall	.-510    	; 0x1932 <UI_ProceedConfigMode>
    1b30:	88 23       	and	r24, r24
    1b32:	49 f0       	breq	.+18     	; 0x1b46 <UI_CheckForConfig+0x2e>
    1b34:	60 91 9a 02 	lds	r22, 0x029A
    1b38:	70 91 9b 02 	lds	r23, 0x029B
    1b3c:	80 91 98 02 	lds	r24, 0x0298
    1b40:	90 91 99 02 	lds	r25, 0x0299
    1b44:	94 c6       	rjmp	.+3368   	; 0x286e <__data_load_end+0x9be>
    1b46:	80 e8       	ldi	r24, 0x80	; 128
    1b48:	9e c6       	rjmp	.+3388   	; 0x2886 <__data_load_end+0x9d6>
    1b4a:	8b d3       	rcall	.+1814   	; 0x2262 <__data_load_end+0x3b2>
    1b4c:	81 11       	cpse	r24, r1
    1b4e:	04 c0       	rjmp	.+8      	; 0x1b58 <UI_CheckForConfig+0x40>
    1b50:	60 ea       	ldi	r22, 0xA0	; 160
    1b52:	72 e0       	ldi	r23, 0x02	; 2
    1b54:	83 e0       	ldi	r24, 0x03	; 3
    1b56:	be c3       	rjmp	.+1916   	; 0x22d4 <__data_load_end+0x424>
    1b58:	08 95       	ret

00001b5a <UI_checkforStartupGesture>:
    1b5a:	83 fd       	sbrc	r24, 3
    1b5c:	ea ce       	rjmp	.-556    	; 0x1932 <UI_ProceedConfigMode>
    1b5e:	4a ce       	rjmp	.-876    	; 0x17f4 <UI_ProceedConfigMode2>

00001b60 <__divmodhi4>:
    1b60:	97 fb       	bst	r25, 7
    1b62:	07 2e       	mov	r0, r23
    1b64:	16 f4       	brtc	.+4      	; 0x1b6a <__divmodhi4+0xa>
    1b66:	00 94       	com	r0
    1b68:	06 d0       	rcall	.+12     	; 0x1b76 <__divmodhi4_neg1>
    1b6a:	77 fd       	sbrc	r23, 7
    1b6c:	08 d0       	rcall	.+16     	; 0x1b7e <__divmodhi4_neg2>
    1b6e:	6b d0       	rcall	.+214    	; 0x1c46 <__udivmodhi4>
    1b70:	07 fc       	sbrc	r0, 7
    1b72:	05 d0       	rcall	.+10     	; 0x1b7e <__divmodhi4_neg2>
    1b74:	3e f4       	brtc	.+14     	; 0x1b84 <__divmodhi4_exit>

00001b76 <__divmodhi4_neg1>:
    1b76:	90 95       	com	r25
    1b78:	81 95       	neg	r24
    1b7a:	9f 4f       	sbci	r25, 0xFF	; 255
    1b7c:	08 95       	ret

00001b7e <__divmodhi4_neg2>:
    1b7e:	70 95       	com	r23
    1b80:	61 95       	neg	r22
    1b82:	7f 4f       	sbci	r23, 0xFF	; 255

00001b84 <__divmodhi4_exit>:
    1b84:	08 95       	ret

00001b86 <__udivmodsi4>:
    1b86:	a1 e2       	ldi	r26, 0x21	; 33
    1b88:	1a 2e       	mov	r1, r26
    1b8a:	aa 1b       	sub	r26, r26
    1b8c:	bb 1b       	sub	r27, r27
    1b8e:	fd 01       	movw	r30, r26
    1b90:	0d c0       	rjmp	.+26     	; 0x1bac <__udivmodsi4_ep>

00001b92 <__udivmodsi4_loop>:
    1b92:	aa 1f       	adc	r26, r26
    1b94:	bb 1f       	adc	r27, r27
    1b96:	ee 1f       	adc	r30, r30
    1b98:	ff 1f       	adc	r31, r31
    1b9a:	a2 17       	cp	r26, r18
    1b9c:	b3 07       	cpc	r27, r19
    1b9e:	e4 07       	cpc	r30, r20
    1ba0:	f5 07       	cpc	r31, r21
    1ba2:	20 f0       	brcs	.+8      	; 0x1bac <__udivmodsi4_ep>
    1ba4:	a2 1b       	sub	r26, r18
    1ba6:	b3 0b       	sbc	r27, r19
    1ba8:	e4 0b       	sbc	r30, r20
    1baa:	f5 0b       	sbc	r31, r21

00001bac <__udivmodsi4_ep>:
    1bac:	66 1f       	adc	r22, r22
    1bae:	77 1f       	adc	r23, r23
    1bb0:	88 1f       	adc	r24, r24
    1bb2:	99 1f       	adc	r25, r25
    1bb4:	1a 94       	dec	r1
    1bb6:	69 f7       	brne	.-38     	; 0x1b92 <__udivmodsi4_loop>
    1bb8:	60 95       	com	r22
    1bba:	70 95       	com	r23
    1bbc:	80 95       	com	r24
    1bbe:	90 95       	com	r25
    1bc0:	9b 01       	movw	r18, r22
    1bc2:	ac 01       	movw	r20, r24
    1bc4:	bd 01       	movw	r22, r26
    1bc6:	cf 01       	movw	r24, r30
    1bc8:	08 95       	ret

00001bca <__divmodsi4>:
    1bca:	05 2e       	mov	r0, r21
    1bcc:	97 fb       	bst	r25, 7
    1bce:	16 f4       	brtc	.+4      	; 0x1bd4 <__divmodsi4+0xa>
    1bd0:	00 94       	com	r0
    1bd2:	0f d0       	rcall	.+30     	; 0x1bf2 <__negsi2>
    1bd4:	57 fd       	sbrc	r21, 7
    1bd6:	05 d0       	rcall	.+10     	; 0x1be2 <__divmodsi4_neg2>
    1bd8:	d6 df       	rcall	.-84     	; 0x1b86 <__udivmodsi4>
    1bda:	07 fc       	sbrc	r0, 7
    1bdc:	02 d0       	rcall	.+4      	; 0x1be2 <__divmodsi4_neg2>
    1bde:	46 f4       	brtc	.+16     	; 0x1bf0 <__divmodsi4_exit>
    1be0:	08 c0       	rjmp	.+16     	; 0x1bf2 <__negsi2>

00001be2 <__divmodsi4_neg2>:
    1be2:	50 95       	com	r21
    1be4:	40 95       	com	r20
    1be6:	30 95       	com	r19
    1be8:	21 95       	neg	r18
    1bea:	3f 4f       	sbci	r19, 0xFF	; 255
    1bec:	4f 4f       	sbci	r20, 0xFF	; 255
    1bee:	5f 4f       	sbci	r21, 0xFF	; 255

00001bf0 <__divmodsi4_exit>:
    1bf0:	08 95       	ret

00001bf2 <__negsi2>:
    1bf2:	90 95       	com	r25
    1bf4:	80 95       	com	r24
    1bf6:	70 95       	com	r23
    1bf8:	61 95       	neg	r22
    1bfa:	7f 4f       	sbci	r23, 0xFF	; 255
    1bfc:	8f 4f       	sbci	r24, 0xFF	; 255
    1bfe:	9f 4f       	sbci	r25, 0xFF	; 255
    1c00:	08 95       	ret

00001c02 <__mulhisi3>:
    1c02:	05 d0       	rcall	.+10     	; 0x1c0e <__umulhisi3>
    1c04:	33 23       	and	r19, r19
    1c06:	12 f4       	brpl	.+4      	; 0x1c0c <__mulhisi3+0xa>
    1c08:	8a 1b       	sub	r24, r26
    1c0a:	9b 0b       	sbc	r25, r27
    1c0c:	0d c0       	rjmp	.+26     	; 0x1c28 <__usmulhisi3_tail>

00001c0e <__umulhisi3>:
    1c0e:	a2 9f       	mul	r26, r18
    1c10:	b0 01       	movw	r22, r0
    1c12:	b3 9f       	mul	r27, r19
    1c14:	c0 01       	movw	r24, r0
    1c16:	a3 9f       	mul	r26, r19
    1c18:	01 d0       	rcall	.+2      	; 0x1c1c <__umulhisi3+0xe>
    1c1a:	b2 9f       	mul	r27, r18
    1c1c:	70 0d       	add	r23, r0
    1c1e:	81 1d       	adc	r24, r1
    1c20:	11 24       	eor	r1, r1
    1c22:	91 1d       	adc	r25, r1
    1c24:	08 95       	ret

00001c26 <__usmulhisi3>:
    1c26:	f3 df       	rcall	.-26     	; 0x1c0e <__umulhisi3>

00001c28 <__usmulhisi3_tail>:
    1c28:	b7 ff       	sbrs	r27, 7
    1c2a:	08 95       	ret
    1c2c:	82 1b       	sub	r24, r18
    1c2e:	93 0b       	sbc	r25, r19
    1c30:	08 95       	ret

00001c32 <__muluhisi3>:
    1c32:	ed df       	rcall	.-38     	; 0x1c0e <__umulhisi3>
    1c34:	a5 9f       	mul	r26, r21
    1c36:	90 0d       	add	r25, r0
    1c38:	b4 9f       	mul	r27, r20
    1c3a:	90 0d       	add	r25, r0
    1c3c:	a4 9f       	mul	r26, r20
    1c3e:	80 0d       	add	r24, r0
    1c40:	91 1d       	adc	r25, r1
    1c42:	11 24       	eor	r1, r1
    1c44:	08 95       	ret

00001c46 <__udivmodhi4>:
    1c46:	aa 1b       	sub	r26, r26
    1c48:	bb 1b       	sub	r27, r27
    1c4a:	51 e1       	ldi	r21, 0x11	; 17
    1c4c:	07 c0       	rjmp	.+14     	; 0x1c5c <__udivmodhi4_ep>

00001c4e <__udivmodhi4_loop>:
    1c4e:	aa 1f       	adc	r26, r26
    1c50:	bb 1f       	adc	r27, r27
    1c52:	a6 17       	cp	r26, r22
    1c54:	b7 07       	cpc	r27, r23
    1c56:	10 f0       	brcs	.+4      	; 0x1c5c <__udivmodhi4_ep>
    1c58:	a6 1b       	sub	r26, r22
    1c5a:	b7 0b       	sbc	r27, r23

00001c5c <__udivmodhi4_ep>:
    1c5c:	88 1f       	adc	r24, r24
    1c5e:	99 1f       	adc	r25, r25
    1c60:	5a 95       	dec	r21
    1c62:	a9 f7       	brne	.-22     	; 0x1c4e <__udivmodhi4_loop>
    1c64:	80 95       	com	r24
    1c66:	90 95       	com	r25
    1c68:	bc 01       	movw	r22, r24
    1c6a:	cd 01       	movw	r24, r26
    1c6c:	08 95       	ret

00001c6e <eeprom_read_block>:
    1c6e:	dc 01       	movw	r26, r24
    1c70:	cb 01       	movw	r24, r22

00001c72 <eeprom_read_blraw>:
    1c72:	fc 01       	movw	r30, r24
    1c74:	f9 99       	sbic	0x1f, 1	; 31
    1c76:	fe cf       	rjmp	.-4      	; 0x1c74 <eeprom_read_blraw+0x2>
    1c78:	06 c0       	rjmp	.+12     	; 0x1c86 <eeprom_read_blraw+0x14>
    1c7a:	f2 bd       	out	0x22, r31	; 34
    1c7c:	e1 bd       	out	0x21, r30	; 33
    1c7e:	f8 9a       	sbi	0x1f, 0	; 31
    1c80:	31 96       	adiw	r30, 0x01	; 1
    1c82:	00 b4       	in	r0, 0x20	; 32
    1c84:	0d 92       	st	X+, r0
    1c86:	41 50       	subi	r20, 0x01	; 1
    1c88:	50 40       	sbci	r21, 0x00	; 0
    1c8a:	b8 f7       	brcc	.-18     	; 0x1c7a <eeprom_read_blraw+0x8>
    1c8c:	08 95       	ret

00001c8e <eeprom_update_block>:
    1c8e:	dc 01       	movw	r26, r24
    1c90:	a4 0f       	add	r26, r20
    1c92:	b5 1f       	adc	r27, r21
    1c94:	41 50       	subi	r20, 0x01	; 1
    1c96:	50 40       	sbci	r21, 0x00	; 0
    1c98:	40 f0       	brcs	.+16     	; 0x1caa <eeprom_update_block+0x1c>
    1c9a:	cb 01       	movw	r24, r22
    1c9c:	84 0f       	add	r24, r20
    1c9e:	95 1f       	adc	r25, r21
    1ca0:	2e 91       	ld	r18, -X
    1ca2:	05 d0       	rcall	.+10     	; 0x1cae <eeprom_update_r18>
    1ca4:	41 50       	subi	r20, 0x01	; 1
    1ca6:	50 40       	sbci	r21, 0x00	; 0
    1ca8:	d8 f7       	brcc	.-10     	; 0x1ca0 <eeprom_update_block+0x12>
    1caa:	08 95       	ret

00001cac <eeprom_update_byte>:
    1cac:	26 2f       	mov	r18, r22

00001cae <eeprom_update_r18>:
    1cae:	f9 99       	sbic	0x1f, 1	; 31
    1cb0:	fe cf       	rjmp	.-4      	; 0x1cae <eeprom_update_r18>
    1cb2:	92 bd       	out	0x22, r25	; 34
    1cb4:	81 bd       	out	0x21, r24	; 33
    1cb6:	f8 9a       	sbi	0x1f, 0	; 31
    1cb8:	01 97       	sbiw	r24, 0x01	; 1
    1cba:	00 b4       	in	r0, 0x20	; 32
    1cbc:	02 16       	cp	r0, r18
    1cbe:	39 f0       	breq	.+14     	; 0x1cce <eeprom_update_r18+0x20>
    1cc0:	1f ba       	out	0x1f, r1	; 31
    1cc2:	20 bd       	out	0x20, r18	; 32
    1cc4:	0f b6       	in	r0, 0x3f	; 63
    1cc6:	f8 94       	cli
    1cc8:	fa 9a       	sbi	0x1f, 2	; 31
    1cca:	f9 9a       	sbi	0x1f, 1	; 31
    1ccc:	0f be       	out	0x3f, r0	; 63
    1cce:	08 95       	ret

00001cd0 <_exit>:
    1cd0:	f8 94       	cli

00001cd2 <__stop_program>:
    1cd2:	ff cf       	rjmp	.-2      	; 0x1cd2 <__stop_program>
